(ccollections
defaultdict
p1
(c__builtin__
list
p2
tRp3
S'http---paginasamarillas.es'
p4
(lp5
F7.9800000000000004
aF6.9169999999999998
aF9.1489999999999991
aF10.699999999999999
aF8.0410000000000004
aF8.8699999999999992
aF9.8140000000000001
aF11.699999999999999
aF10.300000000000001
aF11.5
asS'http---lidl.es'
p6
(lp7
F6.6020000000000003
aF7.2009999999999996
aF6.218
aF6.5110000000000001
aF6.5999999999999996
aF11
aF8.3569999999999993
aF14.6
aF6.516
aF6.6180000000000003
asS'http---hootsuite.com'
p8
(lp9
F14.199999999999999
aF14.199999999999999
aF14.699999999999999
aF14.6
aF14.5
aF14.5
aF14.1
aF14.6
aF14.5
aF14.5
asS'http---comuniazo.com'
p10
(lp11
F6.6829999999999998
aF7.3449999999999998
aF8.0559999999999992
aF9.4610000000000003
aF6.5709999999999997
aF8.1519999999999992
aF6.2069999999999999
aF10.800000000000001
aF7.3700000000000001
aF11.6
asS'http---publico.es'
p12
(lp13
F14
aF12.5
aF16.100000000000001
aF15.9
aF14.800000000000001
aF13.800000000000001
aF15.1
aF13.300000000000001
aF16.199999999999999
aF13
asS'http---clicksvenue.com'
p14
(lp15
F7.3150000000000004
aF6.7050000000000001
aF11.6
aF7.1059999999999999
aF9.6969999999999992
aF6.0529999999999999
aF8.3059999999999992
aF14.1
aF5.2990000000000004
aF6.1609999999999996
asS'http---samsung.com'
p16
(lp17
F14.9
aF11.6
aF9.1890000000000001
aF14.699999999999999
aF11.699999999999999
aF10.800000000000001
aF14
aF14.699999999999999
aF11.1
aF16.600000000000001
asS'http---adslzone.net'
p18
(lp19
F13.6
aF16.399999999999999
aF14.1
aF13.800000000000001
aF14.199999999999999
aF14.4
aF16.100000000000001
aF14.199999999999999
aF14
aF14.6
asS'http---hattrick.org'
p20
(lp21
F11.6
aF12.4
aF10.300000000000001
aF10
aF12.199999999999999
aF8.2899999999999991
aF10.4
aF9.0060000000000002
aF7.9710000000000001
aF9.8469999999999995
asS'http---trivago.es'
p22
(lp23
F6.2880000000000003
aF7.3040000000000003
aF12.4
aF6.1639999999999997
aF5.4489999999999998
aF9.6300000000000008
aF10.300000000000001
aF5.6379999999999999
aF5.4820000000000002
aF5.6749999999999998
asS'http---thefreecamsecret.com'
p24
(lp25
F6.9059999999999997
aF9.1760000000000002
aF6.4489999999999998
aF6.3529999999999998
aF6.4870000000000001
aF6.609
aF7.3520000000000003
aF6.4640000000000004
aF6.8159999999999998
aF6.694
asS'http---wix.com'
p26
(lp27
F6.3259999999999996
aF5.6900000000000004
aF5.5499999999999998
aF9.3219999999999992
aF5.5599999999999996
aF5.415
aF5.6740000000000004
aF5.4370000000000003
aF8.625
aF6.1210000000000004
asS'http---idealista.com'
p28
(lp29
F7.7050000000000001
aF6.2690000000000001
aF9.4710000000000001
aF9.0890000000000004
aF7.2919999999999998
aF5.806
aF5.3099999999999996
aF5.556
aF10.1
aF6.6150000000000002
asS'http---gameforge.com'
p30
(lp31
F8.3320000000000007
aF8.6440000000000001
aF6.7640000000000002
aF6.3470000000000004
aF14.1
aF14.4
aF11.800000000000001
aF12.699999999999999
aF6.29
aF11.300000000000001
asS'http---formulatv.com'
p32
(lp33
F13.199999999999999
aF13.6
aF12.800000000000001
aF12.800000000000001
aF14.1
aF16.300000000000001
aF13.300000000000001
aF14.6
aF14.300000000000001
aF14.5
asS'http---periodistadigital.com'
p34
(lp35
F16.300000000000001
aF15.800000000000001
aF15.800000000000001
aF11.800000000000001
aF16.100000000000001
aF15.5
aF16.399999999999999
aF14.300000000000001
aF13.1
aF14.1
asS'http---hstpnetwork.com'
p36
(lp37
F5.2969999999999997
aF5.3090000000000002
aF8.9619999999999997
aF9.0679999999999996
aF13.1
aF6.5209999999999999
aF10.1
aF11.1
aF7.0629999999999997
aF7.9050000000000002
asS'http---ad6media.fr'
p38
(lp39
F15
aF10.4
aF8.9849999999999994
aF13.800000000000001
aF12.4
aF12.300000000000001
aF14
aF13.300000000000001
aF13.800000000000001
aF14.199999999999999
asS'http---vandal.net'
p40
(lp41
F10.6
aF11.699999999999999
aF13.5
aF10.800000000000001
aF13.4
aF10.699999999999999
aF12.9
aF11.1
aF9.7379999999999995
aF13.4
asS'http---google.com'
p42
(lp43
F5.9420000000000002
aF5.4119999999999999
aF6.2350000000000003
aF5.9909999999999997
aF8.6809999999999992
aF5.9329999999999998
aF7.3390000000000004
aF6.2960000000000003
aF6.9219999999999997
aF5.46
asS'http---juegosonce.es'
p44
(lp45
F6.6289999999999996
aF10.199999999999999
aF9.3539999999999992
aF9.7430000000000003
aF6.5330000000000004
aF9.7300000000000004
aF10.300000000000001
aF7.1289999999999996
aF9.3599999999999994
aF9.9849999999999994
asS'http---domaintools.com'
p46
(lp47
F8.7579999999999991
aF9.4410000000000007
aF7.484
aF8.4830000000000005
aF8.4139999999999997
aF7.3920000000000003
aF8.7629999999999999
aF8.3300000000000001
aF8.6989999999999998
aF8.3989999999999991
asS'http---bild.de'
p48
(lp49
F5.5170000000000003
aF8.0999999999999996
aF5.4329999999999998
aF5.2919999999999998
aF10.1
aF5.6020000000000003
aF7.0220000000000002
aF5.8979999999999997
aF7.4370000000000003
aF7.3170000000000002
asS'http---infoempleo.com'
p50
(lp51
F6.5979999999999999
aF7.2430000000000003
aF16.199999999999999
aF5.3799999999999999
aF9.1660000000000004
aF7.2060000000000004
aF6.7000000000000002
aF6.343
aF7.5149999999999997
aF7.0629999999999997
asS'http---cumlouder.com'
p52
(lp53
F9.8650000000000002
aF8.9079999999999995
aF5.9000000000000004
aF6.7910000000000004
aF5.8330000000000002
aF11.699999999999999
aF12
aF6.5940000000000003
aF6.5250000000000004
aF7.6289999999999996
asS'http---google.fr'
p54
(lp55
F7.117
aF15.1
aF6.2119999999999997
aF10.800000000000001
aF13.699999999999999
aF13.699999999999999
aF5.274
aF5.6520000000000001
aF9.0440000000000005
aF6.8940000000000001
asS'http---lacaixa.es'
p56
(lp57
F5.5439999999999996
aF5.6630000000000003
aF14.5
aF5.6139999999999999
aF9.1120000000000001
aF9.1959999999999997
aF8.1379999999999999
aF11
aF9.0459999999999994
aF6.359
asS'http---tiendeo.com'
p58
(lp59
F10.699999999999999
aF6.5949999999999998
aF10.300000000000001
aF5.7869999999999999
aF9.5030000000000001
aF7.6070000000000002
aF10.4
aF6.4480000000000004
aF6.923
aF10.199999999999999
asS'http---ub.edu'
p60
(lp61
F8.5679999999999996
aF6.3259999999999996
aF6.8120000000000003
aF6.1150000000000002
aF6.9340000000000002
aF6.585
aF7.4589999999999996
aF6.7649999999999997
aF7.8810000000000002
aF8.6170000000000009
asS'http---fotolia.com'
p62
(lp63
F13.1
aF11.5
aF12.300000000000001
aF12
aF14.6
aF13.9
aF14.1
aF14.800000000000001
aF13.1
aF10.9
asS'http---wikia.com'
p64
(lp65
F6.3959999999999999
aF11
aF6.7519999999999998
aF10.9
aF11.699999999999999
aF8.4629999999999992
aF11.699999999999999
aF5.2350000000000003
aF6.1070000000000002
aF11.199999999999999
asS'http---addthis.com'
p66
(lp67
F13.199999999999999
aF15.1
aF10.6
aF9.9930000000000003
aF12.300000000000001
aF8.6039999999999992
aF10.9
aF12.5
aF13.699999999999999
aF9.6069999999999993
asS'http---puromarketing.com'
p68
(lp69
F8.3539999999999992
aF8.0090000000000003
aF4.7290000000000001
aF9.0190000000000001
aF5.8860000000000001
aF5.1909999999999998
aF5.141
aF5.4249999999999998
aF15.300000000000001
aF11.1
asS'http---spalumi.com'
p70
(lp71
F10.300000000000001
aF9.1600000000000001
aF12
aF11.1
aF10.5
aF9.5359999999999996
aF6.3970000000000002
aF8.6760000000000002
aF15.5
aF8.6609999999999996
asS'http---doublepimp.com'
p72
(lp73
F6.9889999999999999
aF8.3049999999999997
aF11.5
aF12.699999999999999
aF6.3799999999999999
aF12.6
aF11.1
aF7.3230000000000004
aF6.4690000000000003
aF15.9
asS'http---solostocks.com'
p74
(lp75
F14
aF14.1
aF14.9
aF14.5
aF14.4
aF13.300000000000001
aF12.800000000000001
aF14.4
aF14.199999999999999
aF13.9
asS'http---catalunyacaixa.com'
p76
(lp77
F10.199999999999999
aF13.699999999999999
aF6.4210000000000003
aF9.4979999999999993
aF10.199999999999999
aF6.2199999999999998
aF5.2460000000000004
aF6.8860000000000001
aF6.9699999999999998
aF5.5880000000000001
asS'http---instagram.com'
p78
(lp79
F6.6479999999999997
aF6.7779999999999996
aF8.3339999999999996
aF5.407
aF9.0820000000000007
aF6.5659999999999998
aF12.699999999999999
aF5.2720000000000002
aF6.7350000000000003
aF5.3490000000000002
asS'http---msn.com'
p80
(lp81
F10.4
aF9.1929999999999996
aF11.4
aF9.1809999999999992
aF12.300000000000001
aF12.699999999999999
aF11.6
aF10.6
aF10.5
aF12.699999999999999
asS'http---larazon.es'
p82
(lp83
F12.199999999999999
aF14.199999999999999
aF14.699999999999999
aF13.6
aF14.300000000000001
aF13.199999999999999
aF13.5
aF13.4
aF16.199999999999999
aF15.9
asS'http---elconfidencial.com'
p84
(lp85
F13.300000000000001
aF14.5
aF14.800000000000001
aF14.6
aF16.100000000000001
aF16.600000000000001
aF16.300000000000001
aF15.4
aF13.6
aF15
asS'http---autoscout24.es'
p86
(lp87
F9.3190000000000008
aF7.9509999999999996
aF12.9
aF9.0519999999999996
aF5.1310000000000002
aF5.6139999999999999
aF6.8739999999999997
aF5.3170000000000002
aF6.476
aF5.5549999999999997
asS'http---ixxx.com'
p88
(lp89
F5.5519999999999996
aF16.300000000000001
aF15
aF16.300000000000001
aF15.699999999999999
aF10.4
aF16.300000000000001
aF15.699999999999999
aF16.100000000000001
aF16.100000000000001
asS'http---xatakamovil.com'
p90
(lp91
F9.3130000000000006
aF11.4
aF14
aF14.9
aF13.1
aF13.5
aF16
aF14.5
aF11.6
aF11.4
asS'http---xvideos.com'
p92
(lp93
F6.7279999999999998
aF6.6740000000000004
aF5.3490000000000002
aF7.2199999999999998
aF6.3920000000000003
aF6.1909999999999998
aF6.8129999999999997
aF10.199999999999999
aF10.300000000000001
aF7.6500000000000004
asS'http---linkbucks.com'
p94
(lp95
F12.6
aF7.0659999999999998
aF8.5269999999999992
aF7.9509999999999996
aF13.1
aF11
aF5.7190000000000003
aF7.7270000000000003
aF6.1639999999999997
aF6.7649999999999997
asS'http---yandex.ru'
p96
(lp97
F5.4589999999999996
aF5.585
aF5.3869999999999996
aF5.5540000000000003
aF6.9740000000000002
aF9.4019999999999992
aF9.5540000000000003
aF6.8540000000000001
aF5.2599999999999998
aF5.4429999999999996
asS'http---vueling.com'
p98
(lp99
F12.9
aF13.1
aF12.6
aF14.6
aF11.199999999999999
aF11.5
aF11.6
aF12.6
aF15.699999999999999
aF12.300000000000001
asS'http---jimdo.com'
p100
(lp101
F8.1489999999999991
aF6.7590000000000003
aF14.5
aF7.3129999999999997
aF13.300000000000001
aF13.5
aF8.5899999999999999
aF8.6820000000000004
aF14.6
aF10.4
asS'http---feedsportal.com'
p102
(lp103
F7.133
aF6.423
aF7.2599999999999998
aF6.1900000000000004
aF5.2759999999999998
aF8.8309999999999995
aF6.9119999999999999
aF6.1239999999999997
aF8.6099999999999994
aF9.1929999999999996
asS'http---lainformacion.com'
p104
(lp105
F12.6
aF16.199999999999999
aF13.199999999999999
aF13
aF12.5
aF13.5
aF14.5
aF14.1
aF15.199999999999999
aF14.199999999999999
asS'http---theguardian.com'
p106
(lp107
F13.300000000000001
aF12.5
aF12.5
aF12.800000000000001
aF13.4
aF13.199999999999999
aF12.699999999999999
aF12.6
aF14.800000000000001
aF13.1
asS'http---atrapalo.com'
p108
(lp109
F5.4109999999999996
aF5.1820000000000004
aF9.2270000000000003
aF6.782
aF7.0510000000000002
aF11.199999999999999
aF10.699999999999999
aF9.2639999999999993
aF6.4969999999999999
aF7.1520000000000001
asS'http---forocoches.com'
p110
(lp111
F6.6799999999999997
aF5.391
aF12.9
aF9.2070000000000007
aF6.391
aF7.6769999999999996
aF15.300000000000001
aF6.3310000000000004
aF6.3250000000000002
aF6.5839999999999996
asS'http---uploaded.net'
p112
(lp113
F7.109
aF7.4870000000000001
aF11
aF7.125
aF6.8579999999999997
aF7.8150000000000004
aF6.3280000000000003
aF11.4
aF6.5970000000000004
aF5.8540000000000001
asS'http---opensiteexplorer.org'
p114
(lp115
F12.5
aF9.5589999999999993
aF13.6
aF5.859
aF10.4
aF14.6
aF6.3280000000000003
aF6.7750000000000004
aF15.5
aF6.1079999999999997
asS'http---atresplayer.com'
p116
(lp117
F6.5670000000000002
aF11.5
aF12.199999999999999
aF13
aF5.282
aF9.4030000000000005
aF10.6
aF8.2119999999999997
aF6.8310000000000004
aF6.9359999999999999
asS'http---blablacar.es'
p118
(lp119
F8.4670000000000005
aF6.3440000000000003
aF7.9299999999999997
aF9.8339999999999996
aF13.9
aF8.2249999999999996
aF8.4169999999999998
aF6.2949999999999999
aF8.5570000000000004
aF12.199999999999999
asS'http---gva.es'
p120
(lp121
F12.699999999999999
aF13.800000000000001
aF12.9
aF11.800000000000001
aF16.199999999999999
aF13.800000000000001
aF11.800000000000001
aF8.2230000000000008
aF14.1
aF12
asS'http---ebay.com'
p122
(lp123
F6.5940000000000003
aF6.0620000000000003
aF9.6289999999999996
aF15.9
aF12.4
aF10.1
aF6.915
aF7.149
aF6.8090000000000002
aF6.7850000000000001
asS'http---wwwhatsnew.com'
p124
(lp125
F16
aF14.1
aF14
aF14.300000000000001
aF15.800000000000001
aF13.699999999999999
aF15.6
aF12.699999999999999
aF15.4
aF14.5
asS'http---indeed.es'
p126
(lp127
F8.4169999999999998
aF6.5
aF8.8239999999999998
aF14
aF8.8290000000000006
aF9.3989999999999991
aF14.5
aF8.1470000000000002
aF8.6189999999999998
aF8.8789999999999996
asS'http---stackexchange.com'
p128
(lp129
F6.3399999999999999
aF8.593
aF8.5289999999999999
aF6.1189999999999998
aF12.1
aF6.1420000000000003
aF14.1
aF13.9
aF11.9
aF11.9
asS'http---as.com'
p130
(lp131
F14.6
aF14.4
aF14.1
aF13.199999999999999
aF14.5
aF13.699999999999999
aF14.199999999999999
aF14.699999999999999
aF14.6
aF14.5
asS'http---enalquiler.com'
p132
(lp133
F5.6900000000000004
aF9.1010000000000009
aF11.6
aF9.2720000000000002
aF8.1799999999999997
aF8.4990000000000006
aF9.5030000000000001
aF6.2069999999999999
aF5.8869999999999996
aF8
asS'http---zalando.es'
p134
(lp135
F10.800000000000001
aF11.1
aF6.9340000000000002
aF5.548
aF8.1609999999999996
aF5.5670000000000002
aF6.7599999999999998
aF6.8419999999999996
aF5.2350000000000003
aF6.8499999999999996
asS'http---disqus.com'
p136
(lp137
F10.4
aF6.4089999999999998
aF13.4
aF8.0519999999999996
aF12.300000000000001
aF10.1
aF8.1319999999999997
aF7.6890000000000001
aF7.1639999999999997
aF8.2690000000000001
asS'http---sh.st'
p138
(lp139
F16
aF14.4
aF14.5
aF14.5
aF14.199999999999999
aF15.4
aF13.300000000000001
aF12.800000000000001
aF14.199999999999999
aF14.6
asS'http---vistoenlasredes.com'
p140
(lp141
F9.8659999999999997
aF8.2129999999999992
aF8.0839999999999996
aF8.4209999999999994
aF8.3209999999999997
aF9.6319999999999997
aF8.9870000000000001
aF8.4930000000000003
aF10.5
aF8.8480000000000008
asS'http---youporn.com'
p142
(lp143
F6.4930000000000003
aF13.1
aF8.1929999999999996
aF7.7720000000000002
aF5.633
aF5.3040000000000003
aF7.1740000000000004
aF5.9699999999999998
aF6.9770000000000003
aF6.3049999999999997
asS'http---mismarcadores.com'
p144
(lp145
F14.4
aF14.6
aF13.5
aF14.199999999999999
aF14.199999999999999
aF12.800000000000001
aF14.6
aF14.300000000000001
aF14.300000000000001
aF13.5
asS'http---ono.es'
p146
(lp147
F7.2549999999999999
aF5.9119999999999999
aF6.1379999999999999
aF6.5099999999999998
aF7.2279999999999998
aF9.0299999999999994
aF5.8929999999999998
aF9.0619999999999994
aF6.9139999999999997
aF9.5920000000000005
asS'http---deviantart.com'
p148
(lp149
F9.7370000000000001
aF14.699999999999999
aF11.300000000000001
aF13
aF14.300000000000001
aF14.199999999999999
aF12.300000000000001
aF16
aF11.6
aF12.800000000000001
asS'http---privatehomeclips.com'
p150
(lp151
F12.5
aF16
aF15
aF13.5
aF14.4
aF11.9
aF12.699999999999999
aF14.5
aF15.300000000000001
aF16.300000000000001
asS'http---ivoox.com'
p152
(lp153
F9.0980000000000008
aF6.431
aF5.5609999999999999
aF5.8710000000000004
aF6.9539999999999997
aF5.415
aF7.0679999999999996
aF8.3919999999999995
aF5.8940000000000001
aF7.9279999999999999
asS'http---directrev.com'
p154
(lp155
F9.4619999999999997
aF3.4129999999999998
aF9.9550000000000001
aF8.8729999999999993
aF5.4290000000000003
aF6.1449999999999996
aF13.5
aF9.4209999999999994
aF7.9480000000000004
aF13.1
asS'http---aweber.com'
p156
(lp157
F9.1660000000000004
aF10.4
aF10.5
aF8.9719999999999995
aF8.3770000000000007
aF8.734
aF10.6
aF8.7929999999999993
aF7.7679999999999998
aF8.9359999999999999
asS'http---photobucket.com'
p158
(lp159
F8.4830000000000005
aF10.5
aF10.4
aF11.4
aF10.199999999999999
aF10.4
aF10.1
aF9.452
aF12
aF10.6
asS'http---ovh.es'
p160
(lp161
F5.3250000000000002
aF6.1050000000000004
aF9.8049999999999997
aF6.5519999999999996
aF13.5
aF14.4
aF7.8689999999999998
aF5.6859999999999999
aF7.1769999999999996
aF5.6559999999999997
asS'http---apple.com'
p162
(lp163
F8.1769999999999996
aF10.6
aF8.4949999999999992
aF8.4100000000000001
aF14.9
aF8.6609999999999996
aF16
aF10
aF6.4000000000000004
aF10.699999999999999
asS'http---bbc.com'
p164
(lp165
F7.1829999999999998
aF9.1890000000000001
aF10.699999999999999
aF5.5960000000000001
aF6.6669999999999998
aF6.6699999999999999
aF12.800000000000001
aF11.199999999999999
aF8.0779999999999994
aF6.7510000000000003
asS'http---vivirdelared.com'
p166
(lp167
F7.173
aF8.1310000000000002
aF5.6150000000000002
aF6.7530000000000001
aF9.1699999999999999
aF13.199999999999999
aF5.6980000000000004
aF5.6529999999999996
aF6.6879999999999997
aF5.508
asS'http---tronya.com'
p168
(lp169
F15
aF13.4
aF14.5
aF13.9
aF14.1
aF10.800000000000001
aF13.300000000000001
aF10.199999999999999
aF10.9
aF14.800000000000001
asS'http---nuevoloquo.com'
p170
(lp171
F8.1950000000000003
aF6.0430000000000001
aF6.7309999999999999
aF6.2140000000000004
aF8.7680000000000007
aF9.8059999999999992
aF5.2709999999999999
aF8.0190000000000001
aF14.4
aF5.2160000000000002
asS'http---vozpopuli.com'
p172
(lp173
F15.9
aF12.9
aF13
aF16.399999999999999
aF13.1
aF16.399999999999999
aF14.6
aF14.1
aF12.699999999999999
aF14.6
asS'http---booking.com'
p174
(lp175
F6.1100000000000003
aF5.5069999999999997
aF11.800000000000001
aF6.0700000000000003
aF5.1879999999999997
aF11.9
aF5.1130000000000004
aF7.7949999999999999
aF8.298
aF11.5
asS'http---pgmediaserve.com'
p176
(lp177
F5.3259999999999996
aF6.7789999999999999
aF6.6109999999999998
aF8.5690000000000008
aF6.2670000000000003
aF8.2880000000000003
aF6.8280000000000003
aF9.0579999999999998
aF6.5019999999999998
aF6.6929999999999996
asS'http---elplural.com'
p178
(lp179
F14
aF14.699999999999999
aF15.800000000000001
aF13.300000000000001
aF14.4
aF12.9
aF9.9169999999999998
aF14.699999999999999
aF14.5
aF15.300000000000001
asS'http---wanadoo.es'
p180
(lp181
F14.5
aF15
aF15.6
aF13.699999999999999
aF15.4
aF14.699999999999999
aF12.699999999999999
aF13.9
aF13.800000000000001
aF15.5
asS'http---rumbo.es'
p182
(lp183
F7.4550000000000001
aF5.6520000000000001
aF9.7699999999999996
aF13.5
aF6.2060000000000004
aF8.9480000000000004
aF7.0730000000000004
aF8.8239999999999998
aF6.8979999999999997
aF7.0759999999999996
asS'http---akamaihd.net'
p184
(lp185
F5.4130000000000003
aF5.7199999999999998
aF6.7240000000000002
aF8.3849999999999998
aF10.199999999999999
aF7.0190000000000001
aF6.5350000000000001
aF6.7850000000000001
aF8.2829999999999995
aF8.9719999999999995
asS'http---orange.es'
p186
(lp187
F15.4
aF11.300000000000001
aF11.5
aF6.96
aF12.699999999999999
aF16
aF12.5
aF15.800000000000001
aF14.1
aF15.5
asS'http---moz.com'
p188
(lp189
F9.7360000000000007
aF7.3520000000000003
aF8.2829999999999995
aF5.8300000000000001
aF9.2469999999999999
aF6.9690000000000003
aF7.3360000000000003
aF8.1059999999999999
aF9.6419999999999995
aF7.165
asS'http---statcounter.com'
p190
(lp191
F6.5279999999999996
aF6.7119999999999997
aF6.5170000000000003
aF6.5449999999999999
aF5.4580000000000002
aF7.4189999999999996
aF5.556
aF10.4
aF7.484
aF6.7590000000000003
asS'http---ruralvia.com'
p192
(lp193
F5.5860000000000003
aF10.300000000000001
aF5.8760000000000003
aF10.4
aF5.5499999999999998
aF14.199999999999999
aF5.2329999999999997
aF6.8289999999999997
aF14.199999999999999
aF5.8719999999999999
asS'http---babylon.com'
p194
(lp195
F6.4020000000000001
aF5.7089999999999996
aF6.1100000000000003
aF9.2469999999999999
aF6.0049999999999999
aF7.141
aF8.5429999999999993
aF6.9130000000000003
aF8.6910000000000007
aF6.2409999999999997
asS'http---mega.co.nz'
p196
(lp197
F5.3730000000000002
aF9.9499999999999993
aF7.5010000000000003
aF6.8109999999999999
aF6.9989999999999997
aF7.0449999999999999
aF11
aF6.8250000000000002
aF14.6
aF6.5309999999999997
asS'http---java.com'
p198
(lp199
F6.4509999999999996
aF6.8120000000000003
aF6.7050000000000001
aF6.085
aF5.6210000000000004
aF6.5940000000000003
aF5.2670000000000003
aF10.6
aF7.5380000000000003
aF9.4469999999999992
asS'http---taringa.net'
p200
(lp201
F14.9
aF13.199999999999999
aF11.4
aF8.9990000000000006
aF6.2430000000000003
aF11.800000000000001
aF6.1029999999999998
aF6.5709999999999997
aF8.5280000000000005
aF8.4390000000000001
asS'http---wikimedia.org'
p202
(lp203
F7.1790000000000003
aF7.2130000000000001
aF5.1980000000000004
aF5.242
aF5.8949999999999996
aF8.2089999999999996
aF7.7910000000000004
aF5.6459999999999999
aF5.5069999999999997
aF6.4969999999999999
asS'http---godaddy.com'
p204
(lp205
F16.199999999999999
aF16.100000000000001
aF7.4210000000000003
aF7.5899999999999999
aF7.7530000000000001
aF8.2260000000000009
aF10.6
aF7.1230000000000002
aF8.2550000000000008
aF7.7830000000000004
asS'http---naciodigital.cat'
p206
(lp207
F9.2739999999999991
aF10.699999999999999
aF8.3960000000000008
aF7.2869999999999999
aF12.9
aF9.5549999999999997
aF14.300000000000001
aF9.2300000000000004
aF9.8179999999999996
aF12.4
asS'http---resultados-futbol.com'
p208
(lp209
F14.1
aF14.300000000000001
aF14.199999999999999
aF14.1
aF14.4
aF14
aF14.1
aF14.4
aF14.1
aF14.4
asS'http---bbc.co.uk'
p210
(lp211
F6.681
aF7.6710000000000003
aF7.298
aF12.5
aF5.4989999999999997
aF6.1029999999999998
aF11.1
aF6.8179999999999996
aF6.2000000000000002
aF9.5459999999999994
asS'http---bitshare.com'
p212
(lp213
F6.6459999999999999
aF6.7149999999999999
aF6.9160000000000004
aF7.8460000000000001
aF7.6070000000000002
aF9.3900000000000006
aF7.3090000000000002
aF6.4000000000000004
aF6.46
aF6.569
asS'http---rankia.com'
p214
(lp215
F14.199999999999999
aF13.5
aF14
aF13.9
aF11.5
aF10
aF11
aF16.300000000000001
aF8.9429999999999996
aF13.1
asS'http---wikipedia.org'
p216
(lp217
F10.300000000000001
aF5.5789999999999997
aF6.3150000000000004
aF8.9429999999999996
aF7.2050000000000001
aF6.4530000000000003
aF5.9539999999999997
aF8.2569999999999997
aF6.0629999999999997
aF7.4880000000000004
asS'http---allmyvideos.net'
p218
(lp219
F6.532
aF11.5
aF9.8759999999999994
aF11
aF15.699999999999999
aF6.8070000000000004
aF15.300000000000001
aF14.6
aF14.1
aF6.8470000000000004
asS'http---yonkis.com'
p220
(lp221
F6.3639999999999999
aF7.8559999999999999
aF5.3369999999999997
aF7.391
aF10.199999999999999
aF9.0060000000000002
aF7.0220000000000002
aF5.9249999999999998
aF5.6319999999999997
aF5.5330000000000004
asS'http---bcn.cat'
p222
(lp223
F11.4
aF9.4719999999999995
aF11
aF11.699999999999999
aF12.9
aF10.4
aF8.9190000000000005
aF8.6020000000000003
aF10.699999999999999
aF11.9
asS'http---chuiso.com'
p224
(lp225
F13.1
aF14.699999999999999
aF12.800000000000001
aF11.300000000000001
aF14.6
aF14.5
aF12.5
aF14.199999999999999
aF12.699999999999999
aF14.699999999999999
asS'http---applesfera.com'
p226
(lp227
F12.5
aF13
aF14.199999999999999
aF13.300000000000001
aF14.1
aF14.1
aF11
aF14.5
aF11.5
aF15.9
asS'http---adcash.com'
p228
(lp229
F7.4169999999999998
aF13
aF12.6
aF13.1
aF7.4560000000000004
aF8.4009999999999998
aF7.1970000000000001
aF6.8849999999999998
aF6.7750000000000004
aF7.3099999999999996
asS'http---asos.com'
p230
(lp231
F7.415
aF8.7769999999999992
aF6.7359999999999998
aF9.7070000000000007
aF10
aF15.6
aF14.199999999999999
aF10.6
aF13.300000000000001
aF8.8490000000000002
asS'http---outbrain.com'
p232
(lp233
F11.699999999999999
aF9.8689999999999998
aF11.300000000000001
aF15.9
aF14.800000000000001
aF14.5
aF12.300000000000001
aF15.9
aF13
aF10.300000000000001
asS'http---upsocl.com'
p234
(lp235
F16.100000000000001
aF15.800000000000001
aF13.300000000000001
aF14.199999999999999
aF14.300000000000001
aF15.9
aF14.300000000000001
aF12.6
aF12.699999999999999
aF15
asS'http---logitravel.com'
p236
(lp237
F11.800000000000001
aF13.300000000000001
aF13
aF13
aF13.1
aF15.800000000000001
aF14.5
aF14.1
aF11.6
aF15.800000000000001
asS'http---xe.com'
p238
(lp239
F9.6869999999999994
aF7.9189999999999996
aF15.699999999999999
aF15
aF12.699999999999999
aF10.5
aF7.8410000000000002
aF10.6
aF7.7670000000000003
aF15
asS'http---engadget.com'
p240
(lp241
F13.9
aF14.300000000000001
aF14.5
aF12.300000000000001
aF14.300000000000001
aF14.1
aF13.4
aF14.6
aF16
aF14.300000000000001
asS'http---microsoftonline.com'
p242
(lp243
F5.5030000000000001
aF8.9320000000000004
aF5.2169999999999996
aF5.3470000000000004
aF7.8099999999999996
aF5.399
aF5.4880000000000004
aF5.4109999999999996
aF7.399
aF8.1029999999999998
asS'http---letsbonus.com'
p244
(lp245
F13
aF12.800000000000001
aF14.4
aF13.199999999999999
aF14.1
aF14.6
aF14.199999999999999
aF14.5
aF14.199999999999999
aF14.6
asS'http---toroporno.com'
p246
(lp247
F16.100000000000001
aF15.6
aF16.300000000000001
aF8.6240000000000006
aF16.5
aF16
aF12.6
aF8.1189999999999998
aF16
aF13.699999999999999
asS'http---subtitulos.es'
p248
(lp249
F9.2279999999999998
aF11
aF9.8249999999999993
aF7.0590000000000002
aF13.5
aF12.4
aF13
aF13.1
aF9.5180000000000007
aF7.8529999999999998
asS'http---diariovasco.com'
p250
(lp251
F7.266
aF7.4370000000000003
aF11.699999999999999
aF13.4
aF8.7850000000000001
aF7.1769999999999996
aF7.21
aF8.3580000000000005
aF15.800000000000001
aF7.1760000000000002
asS'http---ara.cat'
p252
(lp253
F6.3380000000000001
aF6.8789999999999996
aF6.5179999999999998
aF5.6230000000000002
aF5.1360000000000001
aF6.4409999999999998
aF8.8130000000000006
aF7.8310000000000004
aF7.9749999999999996
aF8.7300000000000004
asS'http---shutterstock.com'
p254
(lp255
F13
aF7.2859999999999996
aF9.0269999999999992
aF7.4969999999999999
aF15.9
aF7.1040000000000001
aF7.3959999999999999
aF6.617
aF14.5
aF10.1
asS'http---snapdo.com'
p256
(lp257
F8.5779999999999994
aF6.8719999999999999
aF6.7990000000000004
aF8.7170000000000005
aF6.8579999999999997
aF7.2380000000000004
aF6.9160000000000004
aF6.633
aF6.2210000000000001
aF5.7160000000000002
asS'http---bestusefuldownloads.com'
p258
(lp259
F6.7050000000000001
aF7.2169999999999996
aF6.6509999999999998
aF6.4290000000000003
aF6.415
aF6.7220000000000004
aF6.2409999999999997
aF7.1299999999999999
aF6.3399999999999999
aF5.718
asS'http---todohdtv.com'
p260
(lp261
F14.4
aF14.1
aF12.4
aF14.4
aF14.300000000000001
aF14.800000000000001
aF14.5
aF14.5
aF14.199999999999999
aF14
asS'http---issuu.com'
p262
(lp263
F14.800000000000001
aF16.300000000000001
aF11.800000000000001
aF10.1
aF7.7009999999999996
aF8.8829999999999991
aF11
aF12.300000000000001
aF9.516
aF14.5
asS'http---williamhill.es'
p264
(lp265
F8.5220000000000002
aF9.4239999999999995
aF10.4
aF9.6669999999999998
aF6.6680000000000001
aF7.0039999999999996
aF11
aF10.800000000000001
aF7.2409999999999997
aF6.9189999999999996
asS'http---heraldo.es'
p266
(lp267
F14.5
aF14
aF14.6
aF14.6
aF14.300000000000001
aF16
aF14.300000000000001
aF14.300000000000001
aF14.5
aF13.9
asS'http---avg.com'
p268
(lp269
F11.9
aF13.699999999999999
aF12.4
aF14
aF7.9420000000000002
aF6.8639999999999999
aF12
aF6.7270000000000003
aF8.1560000000000006
aF12.1
asS'http---get-a-fuck-tonight.com'
p270
(lp271
F8.6539999999999999
aF7.016
aF7.6820000000000004
aF6.3040000000000003
aF8.9459999999999997
aF7.726
aF9.3010000000000002
aF9.1649999999999991
aF6.4279999999999999
aF7.8680000000000003
asS'http---decathlon.es'
p272
(lp273
F8.0820000000000007
aF8.1530000000000005
aF6.718
aF6.7480000000000002
aF7.4370000000000003
aF7.0389999999999997
aF9.4499999999999993
aF6.9969999999999999
aF8.3840000000000003
aF8.8369999999999997
asS'http---kioskea.net'
p274
(lp275
F16.199999999999999
aF14.199999999999999
aF12.800000000000001
aF14.4
aF14.1
aF15.9
aF14.9
aF14.300000000000001
aF12.4
aF14.199999999999999
asS'http---t.co'
p276
(lp277
F12.9
aF7.6440000000000001
aF5.3529999999999998
aF6.7560000000000002
aF7.8159999999999998
aF6.274
aF5.3330000000000002
aF7.9660000000000002
aF5.8760000000000003
aF5.4279999999999999
asS'http---forosdelweb.com'
p278
(lp279
F5.8949999999999996
aF16
aF6.3789999999999996
aF6.2960000000000003
aF12.199999999999999
aF6.9260000000000002
aF8.2479999999999993
aF11.6
aF11.800000000000001
aF9.3810000000000002
asS'http---elmundo.es'
p280
(lp281
F15.199999999999999
aF16.100000000000001
aF16.399999999999999
aF16.100000000000001
aF14.4
aF16
aF16
aF14.199999999999999
aF13.199999999999999
aF14
asS'http---mastopofertas.com'
p282
(lp283
F5.4450000000000003
aF5.5229999999999997
aF5.2869999999999999
aF6.7190000000000003
aF7.0030000000000001
aF5.702
aF5.3140000000000001
aF5.4660000000000002
aF6.766
aF5.3129999999999997
asS'http---genbeta.com'
p284
(lp285
F8.5310000000000006
aF10.699999999999999
aF11.699999999999999
aF10.1
aF13
aF12.1
aF11
aF14.199999999999999
aF10.4
aF11.9
asS'http---ideal.es'
p286
(lp287
F6.6749999999999998
aF10.5
aF6.7290000000000001
aF9.9290000000000003
aF5.4370000000000003
aF9.2089999999999996
aF5.3689999999999998
aF6.6539999999999999
aF12.800000000000001
aF6.6559999999999997
asS'http---chaturbate.com'
p288
(lp289
F11.5
aF8.4380000000000006
aF10.5
aF7.9859999999999998
aF13
aF9.4039999999999999
aF15.300000000000001
aF8.0519999999999996
aF13
aF8.8979999999999997
asS'http---bbva.es'
p290
(lp291
F14.4
aF15.5
aF8.4000000000000004
aF12.300000000000001
aF14.1
aF8.9749999999999996
aF11.9
aF12.4
aF8.7439999999999998
aF8.0779999999999994
asS'http---pornhub.com'
p292
(lp293
F5.3040000000000003
aF6.7990000000000004
aF6.3479999999999999
aF5.1989999999999998
aF5.3529999999999998
aF6.694
aF7.0910000000000002
aF10.699999999999999
aF6.1710000000000003
aF5.4340000000000002
asS'http---xtec.cat'
p294
(lp295
F10.6
aF7.0419999999999998
aF7.1390000000000002
aF5.6740000000000004
aF7.5
aF7.0270000000000001
aF7.5759999999999996
aF5.2859999999999996
aF5.3140000000000001
aF5.8399999999999999
asS'http---php.net'
p296
(lp297
F10.300000000000001
aF10.199999999999999
aF14.699999999999999
aF10.9
aF8.6479999999999997
aF7.1619999999999999
aF11.6
aF9.7129999999999992
aF8.0570000000000004
aF11.800000000000001
asS'http---sportium.es'
p298
(lp299
F14.199999999999999
aF14.4
aF15.800000000000001
aF15.800000000000001
aF13.800000000000001
aF16.300000000000001
aF14.6
aF15
aF13.9
aF13.1
asS'http---m2newmedia.com'
p300
(lp301
F8.3200000000000003
aF9.5449999999999999
aF6.7699999999999996
aF6.2199999999999998
aF6.46
aF8.9000000000000004
aF9.3439999999999994
aF6.3150000000000004
aF12.199999999999999
aF8.2859999999999996
asS'http---series.ly'
p302
(lp303
F9.9550000000000001
aF14.300000000000001
aF7.7649999999999997
aF6.6950000000000003
aF12.9
aF14
aF11.5
aF8.9250000000000007
aF9.673
aF14.199999999999999
asS'http---diariosur.es'
p304
(lp305
F12.300000000000001
aF11
aF10.5
aF5.2480000000000002
aF12.699999999999999
aF14
aF8.734
aF15.5
aF9.1170000000000009
aF6.7409999999999997
asS'http---vertele.com'
p306
(lp307
F13.9
aF16.300000000000001
aF14.699999999999999
aF13.300000000000001
aF14.6
aF14.699999999999999
aF14.6
aF13.9
aF15.1
aF14.6
asS'http---blogger.com'
p308
(lp309
F13.300000000000001
aF5.407
aF9.6050000000000004
aF5.4180000000000001
aF5.508
aF10.800000000000001
aF13.800000000000001
aF14.300000000000001
aF7.7480000000000002
aF6.6219999999999999
asS'http---meetup.com'
p310
(lp311
F9.4860000000000007
aF5.3810000000000002
aF5.5170000000000003
aF8.7560000000000002
aF5.2779999999999996
aF5.5099999999999998
aF6.4829999999999997
aF12.1
aF8.7119999999999997
aF10.4
asS'http---joomla.org'
p312
(lp313
F12
aF6.7869999999999999
aF7.5119999999999996
aF4.7850000000000001
aF8.3190000000000008
aF6.8010000000000002
aF10
aF6.75
aF7.0700000000000003
aF6.3470000000000004
asS'http---about.com'
p314
(lp315
F10.1
aF9.7240000000000002
aF6.1989999999999998
aF9.3409999999999993
aF5.1890000000000001
aF6.3449999999999998
aF6.5670000000000002
aF7.8890000000000002
aF7.5670000000000002
aF8.9649999999999999
asS'http---thefreedictionary.com'
p316
(lp317
F7.5439999999999996
aF9.3940000000000001
aF10.1
aF6.5069999999999997
aF9.2319999999999993
aF8.5210000000000008
aF10.800000000000001
aF8.0649999999999995
aF13.699999999999999
aF9.5169999999999995
asS'http---casadellibro.com'
p318
(lp319
F12.699999999999999
aF14.300000000000001
aF16.600000000000001
aF14.800000000000001
aF16.300000000000001
aF14.199999999999999
aF15.199999999999999
aF15.199999999999999
aF15.9
aF16.5
asS'http---flickr.com'
p320
(lp321
F13.199999999999999
aF11.5
aF15.4
aF12.300000000000001
aF11.300000000000001
aF9.5700000000000003
aF14.9
aF13.4
aF13.4
aF15.699999999999999
asS'http---redtube.com'
p322
(lp323
F5.6630000000000003
aF9.9860000000000007
aF6.6479999999999997
aF10.800000000000001
aF10.800000000000001
aF7.9189999999999996
aF8.3759999999999994
aF11.6
aF13.199999999999999
aF6.5129999999999999
asS'http---enlacespepito.com'
p324
(lp325
F7.3390000000000004
aF8.3350000000000009
aF8.5600000000000005
aF6.2229999999999999
aF8.9749999999999996
aF8.6969999999999992
aF6.649
aF7.3230000000000004
aF8.5779999999999994
aF9.2070000000000007
asS'http---bancsabadell.com'
p326
(lp327
F10.199999999999999
aF12.9
aF11
aF11
aF10.9
aF12.699999999999999
aF13.9
aF10
aF9.8800000000000008
aF10.5
asS'http---wordpress.com'
p328
(lp329
F6.5110000000000001
aF5.5640000000000001
aF5.3239999999999998
aF5.2590000000000003
aF6.3719999999999999
aF5.4790000000000001
aF6.7599999999999998
aF5.6360000000000001
aF5.6719999999999997
aF7.1159999999999997
asS'http---bancopopular.es'
p330
(lp331
F7.7199999999999998
aF9.7289999999999992
aF9.4710000000000001
aF12.800000000000001
aF7.9210000000000003
aF6.4470000000000001
aF5.5060000000000002
aF7.4939999999999998
aF5.5490000000000004
aF8.6690000000000005
asS'http---tube8.com'
p332
(lp333
F7.0229999999999997
aF6.4180000000000001
aF5.9939999999999998
aF6.085
aF6.5960000000000001
aF10.5
aF6.8499999999999996
aF5.8440000000000003
aF7.2839999999999998
aF7.1890000000000001
asS'http---amazon.com'
p334
(lp335
F12.4
aF12.699999999999999
aF14.699999999999999
aF13.300000000000001
aF10.5
aF10.199999999999999
aF7.9969999999999999
aF8.4600000000000009
aF14.300000000000001
aF13.800000000000001
asS'http---elcomercio.es'
p336
(lp337
F8.9139999999999997
aF6.5499999999999998
aF14.300000000000001
aF6.9210000000000003
aF6.923
aF6.6189999999999998
aF9.6989999999999998
aF8.9169999999999998
aF6.8470000000000004
aF6.4939999999999998
asS'http---spartoo.es'
p338
(lp339
F9.1259999999999994
aF5.4299999999999997
aF11.1
aF6.2750000000000004
aF6.1539999999999999
aF6.9400000000000004
aF6.8040000000000003
aF8.6180000000000003
aF8.5749999999999993
aF10.800000000000001
asS'http---hogarutil.com'
p340
(lp341
F14.5
aF14
aF14.199999999999999
aF14
aF13.9
aF14.199999999999999
aF14.300000000000001
aF14.4
aF14.5
aF14.5
asS'http---ryanair.com'
p342
(lp343
F11.6
aF12.6
aF14.800000000000001
aF13
aF15.199999999999999
aF10.699999999999999
aF12.4
aF11.6
aF13.4
aF13.4
asS'http---ebay.co.uk'
p344
(lp345
F6.2300000000000004
aF6.5220000000000002
aF5.2199999999999998
aF6.7759999999999998
aF10.300000000000001
aF10.699999999999999
aF8.8989999999999991
aF12.5
aF10.9
aF6.7770000000000001
asS'http---cuatro.com'
p346
(lp347
F14.699999999999999
aF17
aF15.6
aF15.300000000000001
aF13.9
aF14.9
aF14.4
aF16.300000000000001
aF14
aF15.1
asS'http---amazon.es'
p348
(lp349
F11.1
aF11.1
aF7.6870000000000003
aF11.300000000000001
aF6.5999999999999996
aF15.300000000000001
aF9.3350000000000009
aF7.8010000000000002
aF6.4189999999999996
aF10.300000000000001
asS'http---lasexta.com'
p350
(lp351
F14.6
aF14.6
aF14.6
aF14.199999999999999
aF14.4
aF14.699999999999999
aF14.1
aF14.5
aF16
aF14
asS'http---fnac.es'
p352
(lp353
F14.699999999999999
aF14.800000000000001
aF14.9
aF14.5
aF14.6
aF15.800000000000001
aF14.6
aF16.199999999999999
aF16
aF16
asS'http---ikea.com'
p354
(lp355
F6.7249999999999996
aF5.7409999999999997
aF5.3499999999999996
aF6.8760000000000003
aF5.5709999999999997
aF6.7590000000000003
aF7.0679999999999996
aF7.0069999999999997
aF6.2039999999999997
aF15.300000000000001
asS'http---list-manage.com'
p356
(lp357
F6.5300000000000002
aF9.4060000000000006
aF9.1479999999999997
aF5.1799999999999997
aF9.5649999999999995
aF7.7999999999999998
aF9.7599999999999998
aF6.9199999999999999
aF6.1879999999999997
aF9.173
asS'http---soundcloud.com'
p358
(lp359
F11
aF11.5
aF10.4
aF7.1859999999999999
aF14.5
aF10.300000000000001
aF7.6669999999999998
aF13.4
aF7.4189999999999996
aF7.4400000000000004
asS'http---clixsense.com'
p360
(lp361
F6.5359999999999996
aF5.532
aF6.9269999999999996
aF10.800000000000001
aF8.8000000000000007
aF6.819
aF6.75
aF10.800000000000001
aF12.300000000000001
aF6.5110000000000001
asS'http---clkmon.com'
p362
(lp363
F9.1400000000000006
aF9.6430000000000007
aF9.4139999999999997
aF7.4009999999999998
aF9.3780000000000001
aF10.199999999999999
aF8.1080000000000005
aF8.6449999999999996
aF8.9559999999999995
aF7.3310000000000004
asS'http---gsmspain.com'
p364
(lp365
F13.9
aF14.300000000000001
aF14.800000000000001
aF14.699999999999999
aF14.199999999999999
aF13.300000000000001
aF14.5
aF14.300000000000001
aF14.699999999999999
aF13.9
asS'http---acb.com'
p366
(lp367
F16.199999999999999
aF13.1
aF12.800000000000001
aF14.4
aF13
aF14.1
aF15
aF14.6
aF12.4
aF11.6
asS'http---adbooth.com'
p368
(lp369
F13.800000000000001
aF14.9
aF9.4849999999999994
aF11.6
aF7.2089999999999996
aF9.3580000000000005
aF7.0519999999999996
aF8.6080000000000005
aF7.3019999999999996
aF11.800000000000001
asS'http---correos.es'
p370
(lp371
F6.3680000000000003
aF15.1
aF9.1210000000000004
aF6.7720000000000002
aF6.5960000000000001
aF8.3219999999999992
aF6.9740000000000002
aF11.4
aF6.8099999999999996
aF7.673
asS'http---aemet.es'
p372
(lp373
F8.6530000000000005
aF9.4380000000000006
aF9.9480000000000004
aF5.649
aF8.7880000000000003
aF8.1850000000000005
aF9.0069999999999997
aF9.8390000000000004
aF8.2170000000000005
aF7.548
asS'http---loteriasyapuestas.es'
p374
(lp375
F5.7850000000000001
aF5.9740000000000002
aF7.6369999999999996
aF6.952
aF6.9359999999999999
aF6.7770000000000001
aF5.2869999999999999
aF4.2240000000000002
aF5.3680000000000003
aF8.3450000000000006
asS'http---ask.com'
p376
(lp377
F5.8789999999999996
aF6.4009999999999998
aF6.4249999999999998
aF5.7699999999999996
aF6.0129999999999999
aF6.2800000000000002
aF8.0890000000000004
aF11.5
aF5.8049999999999997
aF9.8610000000000007
asS'http---agenciatributaria.gob.es'
p378
(lp379
F6.4169999999999998
aF6.7779999999999996
aF7.1109999999999998
aF5.4500000000000002
aF5.0449999999999999
aF5.5970000000000004
aF6.3920000000000003
aF6.3440000000000003
aF11.1
aF5.6139999999999999
asS'http---petardas.com'
p380
(lp381
F5.4329999999999998
aF5.7069999999999999
aF7.9989999999999997
aF6.7859999999999996
aF8.1259999999999994
aF5.4130000000000003
aF5.3899999999999997
aF8.1189999999999998
aF5.4340000000000002
aF5.5460000000000003
asS'http---cadenaser.com'
p382
(lp383
F14
aF14.5
aF13.800000000000001
aF13.9
aF14.6
aF14.1
aF14.699999999999999
aF15.4
aF14.1
aF14.6
asS'http---bwin.es'
p384
(lp385
F14.1
aF13.9
aF12.699999999999999
aF13.4
aF13.699999999999999
aF13.9
aF15.300000000000001
aF14.4
aF14.300000000000001
aF13.699999999999999
asS'http---tv3.cat'
p386
(lp387
F12.199999999999999
aF13.4
aF10.4
aF11.699999999999999
aF9.1210000000000004
aF8.3190000000000008
aF12.9
aF16
aF15.5
aF9.3819999999999997
asS'http---vk.com'
p388
(lp389
F7.1079999999999997
aF5.625
aF10.699999999999999
aF5.3220000000000001
aF5.968
aF6.9710000000000001
aF5.774
aF6.1299999999999999
aF13.6
aF8.7590000000000003
asS'http---comunio.es'
p390
(lp391
F6.0490000000000004
aF9.5690000000000008
aF6.8819999999999997
aF10.5
aF9.5359999999999996
aF7.8529999999999998
aF6.085
aF6.6790000000000003
aF9.9399999999999995
aF6.8280000000000003
asS'http---consumer.es'
p392
(lp393
F14.699999999999999
aF13.300000000000001
aF13.300000000000001
aF12
aF15
aF15.699999999999999
aF15.6
aF13.5
aF12.199999999999999
aF13.699999999999999
asS'http---cam4.es'
p394
(lp395
F9.1530000000000005
aF5.8849999999999998
aF8.5980000000000008
aF6.3040000000000003
aF9.1020000000000003
aF8.4770000000000003
aF6.5700000000000003
aF8.3109999999999999
aF6.7610000000000001
aF5.4240000000000004
asS'http---scribd.com'
p396
(lp397
F14.4
aF6.75
aF5.3360000000000003
aF9.7870000000000008
aF10.6
aF7.0190000000000001
aF12.6
aF6.6200000000000001
aF7.4859999999999998
aF5.5860000000000003
asS'http---bp.blogspot.com'
p398
(lp399
F5.5510000000000002
aF5.4160000000000004
aF7.024
aF5.7569999999999997
aF6.9409999999999998
aF6.7039999999999997
aF5.3719999999999999
aF7.0090000000000003
aF5.5789999999999997
aF11.5
asS'http---prnoticias.com'
p400
(lp401
F15
aF16.699999999999999
aF15.1
aF13.6
aF14.800000000000001
aF15.6
aF16.100000000000001
aF13
aF13.300000000000001
aF12.800000000000001
asS'http---wikiloc.com'
p402
(lp403
F14.4
aF13.9
aF15.300000000000001
aF14.300000000000001
aF13.6
aF14.6
aF14.6
aF13.9
aF14.6
aF14.6
asS'http---memedeportes.com'
p404
(lp405
F14.6
aF14.699999999999999
aF10.699999999999999
aF14.9
aF15
aF14.9
aF14.699999999999999
aF15.1
aF14.9
aF14.699999999999999
asS'http---huffingtonpost.es'
p406
(lp407
F10.199999999999999
aF8.0850000000000009
aF15.800000000000001
aF11.699999999999999
aF9.8390000000000004
aF10.199999999999999
aF7.6870000000000003
aF12.300000000000001
aF9.6790000000000003
aF10.699999999999999
asS'http---files.wordpress.com'
p408
(lp409
F5.4509999999999996
aF11.800000000000001
aF5.8029999999999999
aF8.641
aF10.5
aF5.3449999999999998
aF8.2989999999999995
aF6.8840000000000003
aF7.1849999999999996
aF11.9
asS'http---buyvip.com'
p410
(lp411
F6.7030000000000003
aF6.5389999999999997
aF12.1
aF8.5820000000000007
aF6.1210000000000004
aF7.3099999999999996
aF8.9109999999999996
aF8.0779999999999994
aF6.3239999999999998
aF6.6980000000000004
asS'http---bitly.com'
p412
(lp413
F5.444
aF5.306
aF8.2110000000000003
aF6.8639999999999999
aF12.199999999999999
aF5.5090000000000003
aF5.5720000000000001
aF8.3689999999999998
aF6.7960000000000003
aF5.6980000000000004
asS'http---dropbox.com'
p414
(lp415
F14.4
aF13.699999999999999
aF9.0090000000000003
aF9.6850000000000005
aF9.6300000000000008
aF8.0099999999999998
aF7.3650000000000002
aF10.300000000000001
aF14.1
aF11.4
asS'http---canadaalltax.com'
p416
(lp417
F5.5419999999999998
aF5.3129999999999997
aF9.2260000000000009
aF14.9
aF5.8140000000000001
aF6.8769999999999998
aF6.4640000000000004
aF6.524
aF6.9500000000000002
aF5.907
asS'http---paypal.com'
p418
(lp419
F13.1
aF10.199999999999999
aF9.0180000000000007
aF9.0920000000000005
aF11
aF9.0749999999999993
aF10.300000000000001
aF8.7089999999999996
aF9.2949999999999999
aF9.032
asS'http---elle.es'
p420
(lp421
F6.4630000000000001
aF8.5809999999999995
aF7.5730000000000004
aF7.2430000000000003
aF5.5679999999999996
aF6.3419999999999996
aF5.1779999999999999
aF8.3279999999999994
aF15.5
aF9.7010000000000005
asS'http---goodgamestudios.com'
p422
(lp423
F6.7380000000000004
aF8.1470000000000002
aF6.915
aF7.1790000000000003
aF5.3659999999999997
aF11
aF5.5170000000000003
aF15.6
aF9.4489999999999998
aF10.699999999999999
asS'http---dondominio.com'
p424
(lp425
F8.5150000000000006
aF13.1
aF12.6
aF13.9
aF8.8970000000000002
aF8.9269999999999996
aF13.1
aF12.6
aF14.699999999999999
aF14.699999999999999
asS'http---lavanguardia.com'
p426
(lp427
F14.6
aF14.6
aF14
aF15.5
aF13.9
aF13.699999999999999
aF14.6
aF14.6
aF14.699999999999999
aF16.399999999999999
asS'http---unetepubli.com'
p428
(lp429
F6.5069999999999997
aF8.5069999999999997
aF6.6760000000000002
aF9.4819999999999993
aF5.2469999999999999
aF8.4350000000000005
aF5.2720000000000002
aF7.1070000000000002
aF9.4990000000000006
aF8.7690000000000001
asS'http---facilisimo.com'
p430
(lp431
F10.4
aF9.9440000000000008
aF6.7569999999999997
aF14.300000000000001
aF9.3559999999999999
aF5.5049999999999999
aF5.2549999999999999
aF5.4429999999999996
aF5.444
aF6.5999999999999996
asS'http---neobux.com'
p432
(lp433
F5.5869999999999997
aF6.5620000000000003
aF13.199999999999999
aF6.008
aF6.7759999999999998
aF11
aF6.4390000000000001
aF9.5039999999999996
aF10.5
aF7.0599999999999996
asS'http---cuantarazon.com'
p434
(lp435
F11.9
aF12.300000000000001
aF14.800000000000001
aF13.6
aF16
aF13.300000000000001
aF11.699999999999999
aF15.800000000000001
aF13.4
aF13.300000000000001
asS'http---dailymail.co.uk'
p436
(lp437
F14.300000000000001
aF14.9
aF16.600000000000001
aF16.399999999999999
aF14.800000000000001
aF14.9
aF14.9
aF14.9
aF15.6
aF14.5
asS'http---cope.es'
p438
(lp439
F13.699999999999999
aF14.5
aF16.600000000000001
aF15.300000000000001
aF14.1
aF14
aF12.9
aF16.100000000000001
aF11.9
aF15.9
asS'http---boe.es'
p440
(lp441
F6.3289999999999997
aF9.1349999999999998
aF8.7319999999999993
aF8.8490000000000002
aF8.5399999999999991
aF8.5600000000000005
aF6.7290000000000001
aF6.2149999999999999
aF7.7599999999999998
aF8.5679999999999996
asS'http---linkedin.com'
p442
(lp443
F7.508
aF5.968
aF9.3030000000000008
aF5.4269999999999996
aF12.800000000000001
aF6.5629999999999997
aF7.048
aF10.4
aF5.2599999999999998
aF14.199999999999999
asS'http---trklnks.com'
p444
(lp445
F8.1820000000000004
aF9.8640000000000008
aF8.609
aF8.5169999999999995
aF3.181
aF5.9189999999999996
aF7.9800000000000004
aF8.0549999999999997
aF9.5510000000000002
aF9.0749999999999993
asS'http---zeobit.com'
p446
(lp447
F5.5359999999999996
aF7.1180000000000003
aF8.6790000000000003
aF7.3890000000000002
aF9.0939999999999994
aF11.300000000000001
aF9.282
aF9.1400000000000006
aF13.5
aF6.8159999999999998
asS'http---youtube.com'
p448
(lp449
F15.199999999999999
aF13.5
aF6.0800000000000001
aF13.4
aF6.2999999999999998
aF14.5
aF6.4210000000000003
aF7.1890000000000001
aF13.4
aF6.6100000000000003
asS'http---marca.com'
p450
(lp451
F12.1
aF6.7930000000000001
aF7.6449999999999996
aF10.300000000000001
aF5.4539999999999997
aF9.1999999999999993
aF7.0099999999999998
aF15.6
aF8.7509999999999994
aF9.8729999999999993
asS'http---mediavida.com'
p452
(lp453
F8.4250000000000007
aF5.5220000000000002
aF6.9219999999999997
aF14.300000000000001
aF14.6
aF5.1829999999999998
aF8.5039999999999996
aF7.077
aF8.8079999999999998
aF6.0369999999999999
asS'http---fotocasa.es'
p454
(lp455
F8.2530000000000001
aF5.5220000000000002
aF9.3620000000000001
aF1.9339999999999999
aF8.7850000000000001
aF7.6619999999999999
aF9.0459999999999994
aF7.9379999999999997
aF8.702
aF6.0270000000000001
asS'http---newpct.com'
p456
(lp457
F14.800000000000001
aF14.4
aF14.5
aF14.5
aF14.6
aF14.4
aF14.800000000000001
aF14.199999999999999
aF14.300000000000001
aF14.6
asS'http---buzzfeed.com'
p458
(lp459
F13.5
aF14.300000000000001
aF14.4
aF14.1
aF12.6
aF14.4
aF13.699999999999999
aF13.699999999999999
aF13.199999999999999
aF16
asS'http---888poker.es'
p460
(lp461
F5.8849999999999998
aF6.806
aF7.8079999999999998
aF5.5679999999999996
aF8.1750000000000007
aF5.2039999999999997
aF6.431
aF7.0999999999999996
aF5.4690000000000003
aF7.1660000000000004
asS'http---tiramillas.net'
p462
(lp463
F13.6
aF15.4
aF13
aF14.6
aF14.4
aF12.199999999999999
aF12
aF14.800000000000001
aF12.5
aF15.199999999999999
asS'http---renfe.es'
p464
(lp465
F8.0779999999999994
aF8.6329999999999991
aF10.300000000000001
aF5.6600000000000001
aF8.1969999999999992
aF8.2300000000000004
aF8.8810000000000002
aF8.2289999999999992
aF8.6159999999999997
aF9.3559999999999999
asS'http---bet365.com'
p466
(lp467
F15
aF11.1
aF9.407
aF8.4039999999999999
aF14.6
aF7.5229999999999997
aF9.1969999999999992
aF13.800000000000001
aF10.4
aF11.1
asS'http---ucm.es'
p468
(lp469
F10.800000000000001
aF6.181
aF6.5609999999999999
aF6.9429999999999996
aF5.5839999999999996
aF8.016
aF11.699999999999999
aF7.8979999999999997
aF6.8250000000000002
aF6.4020000000000001
asS'http---telecinco.es'
p470
(lp471
F15.199999999999999
aF16.399999999999999
aF15
aF14.9
aF16.800000000000001
aF14.9
aF11.199999999999999
aF16.800000000000001
aF16.800000000000001
aF14.4
asS'http---openbank.es'
p472
(lp473
F6.4299999999999997
aF6.2060000000000004
aF6.6260000000000003
aF10.199999999999999
aF5.9299999999999997
aF10.1
aF6.5179999999999998
aF5.5750000000000002
aF9.9719999999999995
aF5.4169999999999998
asS'http---juntadeandalucia.es'
p474
(lp475
F9.4459999999999997
aF6.5700000000000003
aF9.5739999999999998
aF6.7839999999999998
aF8.2590000000000003
aF6.6790000000000003
aF8.3520000000000003
aF7.5949999999999998
aF6.3959999999999999
aF6.2270000000000003
asS'http---ask.fm'
p476
(lp477
F7.5170000000000003
aF7.1820000000000004
aF6.5819999999999999
aF11.4
aF10.6
aF5.2210000000000001
aF8.9469999999999992
aF5.952
aF6.5250000000000004
aF5.2519999999999998
asS'http---pordescargadirecta.com'
p478
(lp479
F10.300000000000001
aF12.4
aF12.5
aF13.9
aF10.199999999999999
aF13.300000000000001
aF11.699999999999999
aF11.9
aF15
aF15.6
asS'http---goo.gl'
p480
(lp481
F12.5
aF6.3010000000000002
aF5.8890000000000002
aF5.8780000000000001
aF6.2039999999999997
aF8.7270000000000003
aF5.8049999999999997
aF5.883
aF6.4909999999999997
aF6.2960000000000003
asS'http---gmail.com'
p482
(lp483
F6.4699999999999998
aF6.6449999999999996
aF11.699999999999999
aF6.5860000000000003
aF5.8540000000000001
aF6.7759999999999998
aF6.5460000000000003
aF6.6879999999999997
aF13.199999999999999
aF7.0439999999999996
asS'http---exvagos.com'
p484
(lp485
F7.7320000000000002
aF15.800000000000001
aF11.800000000000001
aF10.4
aF8.2509999999999994
aF8.5280000000000005
aF8.1110000000000007
aF15.300000000000001
aF7.5229999999999997
aF8.2490000000000006
asS'http---youjizz.com'
p486
(lp487
F10.5
aF10.300000000000001
aF10.1
aF8.6489999999999991
aF12.300000000000001
aF6.7779999999999996
aF8.6189999999999998
aF14.5
aF11.699999999999999
aF12.9
asS'http---google.de'
p488
(lp489
F8.5830000000000002
aF8.7119999999999997
aF5.7519999999999998
aF5.6719999999999997
aF8.3439999999999994
aF6.8070000000000004
aF5.6150000000000002
aF7.1609999999999996
aF6.2119999999999997
aF5.3129999999999997
asS'http---zara.com'
p490
(lp491
F10.699999999999999
aF7.4320000000000004
aF8.4429999999999996
aF15.5
aF7.5140000000000002
aF6.7359999999999998
aF15.9
aF7.7229999999999999
aF7.6219999999999999
aF5.8639999999999999
asS'http---mozilla.org'
p492
(lp493
F5.5860000000000003
aF11.4
aF5.2160000000000002
aF10.6
aF5.8920000000000003
aF6.298
aF6.8360000000000003
aF6.0490000000000004
aF11.699999999999999
aF6.6559999999999997
asS'http---webssearches.com'
p494
(lp495
F10.1
aF5.0640000000000001
aF7.0490000000000004
aF6.9390000000000001
aF6.5350000000000001
aF8.5079999999999991
aF5.3150000000000004
aF5.5549999999999997
aF8.4909999999999997
aF5.383
asS'http---cnn.com'
p496
(lp497
F10.199999999999999
aF6.5149999999999997
aF6.6390000000000002
aF6.9420000000000002
aF6.4480000000000004
aF6.7039999999999997
aF6.5919999999999996
aF8.9879999999999995
aF6.4610000000000003
aF12.300000000000001
asS'http---playgroundmag.net'
p498
(lp499
F14.800000000000001
aF15.4
aF14.5
aF14.5
aF14.699999999999999
aF14.199999999999999
aF14.6
aF14.699999999999999
aF13.1
aF16
asS'http---europa.eu'
p500
(lp501
F9.4450000000000003
aF9.1159999999999997
aF9.7780000000000005
aF8.3640000000000008
aF7.6189999999999998
aF10.4
aF8.8049999999999997
aF5.9089999999999998
aF9.7390000000000008
aF8.0540000000000003
asS'http---pinterest.com'
p502
(lp503
F7.2000000000000002
aF7.383
aF12.800000000000001
aF7.7489999999999997
aF12
aF5.7839999999999998
aF7.0289999999999999
aF7.391
aF8.5809999999999995
aF7.5229999999999997
asS'http---streamcloud.eu'
p504
(lp505
F6.4109999999999996
aF6.6459999999999999
aF5.6500000000000004
aF6.7080000000000002
aF6.5380000000000003
aF6.4279999999999999
aF11.1
aF10.699999999999999
aF6.4589999999999996
aF14.9
asS'http---meetic.es'
p506
(lp507
F11.300000000000001
aF11.9
aF9.8740000000000006
aF11.800000000000001
aF9.7850000000000001
aF9.3390000000000004
aF10.699999999999999
aF10.699999999999999
aF9.9169999999999998
aF11.4
asS'http---jazztel.com'
p508
(lp509
F11.6
aF8.4529999999999994
aF10.300000000000001
aF8.8699999999999992
aF7.8609999999999998
aF7.6890000000000001
aF7.5730000000000004
aF12.300000000000001
aF10.800000000000001
aF10.300000000000001
asS'http---berserk.es'
p510
(lp511
F7.0880000000000001
aF8.8490000000000002
aF6.7919999999999998
aF7.2039999999999997
aF6.0090000000000003
aF14
aF6.7030000000000003
aF6.6509999999999998
aF5.2089999999999996
aF5.4080000000000004
asS'http---superdeporte.com'
p512
(lp513
F13
aF14.4
aF14.6
aF12.1
aF14.300000000000001
aF14.800000000000001
aF14.9
aF14.4
aF14.800000000000001
aF12.699999999999999
asS'http---twitter.com'
p514
(lp515
F10.4
aF10.4
aF10.199999999999999
aF11.4
aF13.6
aF10.300000000000001
aF10.199999999999999
aF11.5
aF10.1
aF10.1
asS'http---wordreference.com'
p516
(lp517
F8.7140000000000004
aF8.484
aF7.0449999999999999
aF9.2690000000000001
aF8.4870000000000001
aF5.9459999999999997
aF3.8969999999999998
aF7.774
aF8.4280000000000008
aF5.7130000000000001
asS'http---uncomo.com'
p518
(lp519
F7.782
aF11.6
aF13.4
aF5.5110000000000001
aF7.883
aF7.5609999999999999
aF8.4480000000000004
aF6.6719999999999997
aF8.282
aF6.2199999999999998
asS'http---bankia.es'
p520
(lp521
F5.4539999999999997
aF6.1829999999999998
aF6.1689999999999996
aF8.5709999999999997
aF6.4409999999999998
aF6.899
aF9.9250000000000007
aF6.7249999999999996
aF5.6710000000000003
aF6.6909999999999998
asS'http---edreams.es'
p522
(lp523
F15.699999999999999
aF16.300000000000001
aF16.300000000000001
aF16.199999999999999
aF16.300000000000001
aF9.9299999999999997
aF16.399999999999999
aF16.100000000000001
aF15.699999999999999
aF16.100000000000001
asS'http---y8.com'
p524
(lp525
F9.8650000000000002
aF11.300000000000001
aF12.800000000000001
aF14.699999999999999
aF11.699999999999999
aF14.5
aF16.399999999999999
aF14.1
aF14.199999999999999
aF14.9
asS'http---eazel.com'
p526
(lp527
F9.5809999999999995
aF11.4
aF10.300000000000001
aF9.9649999999999999
aF13.300000000000001
aF9.7330000000000005
aF7.2130000000000001
aF10.1
aF9.6080000000000005
aF12.199999999999999
asS'http---zopim.com'
p528
(lp529
F14.1
aF15.6
aF15.1
aF14.6
aF13.6
aF13.699999999999999
aF13.1
aF14.699999999999999
aF14.5
aF14.5
asS'http---madrid.org'
p530
(lp531
F5.7060000000000004
aF7.2199999999999998
aF6.3159999999999998
aF5.4710000000000001
aF5.2640000000000002
aF6.0999999999999996
aF5.3879999999999999
aF6.0700000000000003
aF8.5129999999999999
aF10.9
asS'http---futbolme.com'
p532
(lp533
F12
aF12.5
aF14.300000000000001
aF13.699999999999999
aF14.1
aF12.6
aF10.199999999999999
aF14.699999999999999
aF11.699999999999999
aF11.699999999999999
asS'http---iberia.com'
p534
(lp535
F5.3849999999999998
aF13.199999999999999
aF7.4790000000000001
aF5.2370000000000001
aF6.335
aF7.4749999999999996
aF7.101
aF5.4989999999999997
aF5.2350000000000003
aF5.6360000000000001
asS'http---yahoo.com'
p536
(lp537
F9.2629999999999999
aF12.9
aF9.452
aF14.9
aF10.5
aF14.6
aF15.9
aF10.9
aF13.4
aF10
asS'http---carrefour.es'
p538
(lp539
F5.6029999999999998
aF5.8609999999999998
aF4.0170000000000003
aF6.5140000000000002
aF6.3230000000000004
aF9.2759999999999998
aF8.0649999999999995
aF5.8419999999999996
aF7.343
aF6.4660000000000002
asS'http---feedly.com'
p540
(lp541
F7.4189999999999996
aF5.9610000000000003
aF9.9949999999999992
aF6.367
aF10.1
aF5.9850000000000003
aF1.9950000000000001
aF6.7300000000000004
aF8.4649999999999999
aF7.9800000000000004
asS'http---dx.com'
p542
(lp543
F11.9
aF11.699999999999999
aF13.9
aF11.5
aF12.5
aF11.300000000000001
aF10.699999999999999
aF16.399999999999999
aF10.699999999999999
aF14.1
asS'http---todocoleccion.net'
p544
(lp545
F9.1389999999999993
aF8.0060000000000002
aF8.3239999999999998
aF9.6899999999999995
aF10.5
aF10.800000000000001
aF7.5579999999999998
aF13.6
aF8.5980000000000008
aF10.1
asS'http---amazon.co.uk'
p546
(lp547
F6.6360000000000001
aF6.8150000000000004
aF5.5910000000000002
aF6.7850000000000001
aF6.4870000000000001
aF8.8040000000000003
aF6.5750000000000002
aF5.3019999999999996
aF10.300000000000001
aF6.3879999999999999
asS'http---googleusercontent.com'
p548
(lp549
F8.9870000000000001
aF6.9379999999999997
aF5.5810000000000004
aF6.4880000000000004
aF6.6790000000000003
aF6.54
aF5.0659999999999998
aF10.699999999999999
aF6.141
aF5.7400000000000002
asS'http---livejasmin.com'
p550
(lp551
F7.2370000000000001
aF10.9
aF6.9859999999999998
aF7.1130000000000004
aF12.699999999999999
aF12.699999999999999
aF12.800000000000001
aF9.0909999999999993
aF12.5
aF8.3260000000000005
asS'http---ehowenespanol.com'
p552
(lp553
F5.3099999999999996
aF7.9279999999999999
aF5.7590000000000003
aF5.2039999999999997
aF7.0469999999999997
aF5.1349999999999998
aF9.4969999999999999
aF7.0369999999999999
aF4.7839999999999998
aF6.6669999999999998
asS'http---w3schools.com'
p554
(lp555
F6.8440000000000003
aF10.800000000000001
aF6.8369999999999997
aF7.1719999999999997
aF6.8700000000000001
aF8.3399999999999999
aF12.699999999999999
aF6.2450000000000001
aF5.1619999999999999
aF5.609
asS'http---played.to'
p556
(lp557
F7.0469999999999997
aF6.1680000000000001
aF7.4119999999999999
aF9.3620000000000001
aF6.3079999999999998
aF13.4
aF6.9329999999999998
aF6.8529999999999998
aF6.117
aF6.6609999999999996
asS'http---cnet.com'
p558
(lp559
F9.1940000000000008
aF13.5
aF9.9260000000000002
aF12.300000000000001
aF9.4719999999999995
aF10.4
aF10.199999999999999
aF11.5
aF8.7710000000000008
aF12
asS'http---badoo.com'
p560
(lp561
F8.3580000000000005
aF8.7870000000000008
aF5.3620000000000001
aF6.3410000000000002
aF6.5540000000000003
aF9.4890000000000008
aF8.6649999999999991
aF6.7000000000000002
aF6.2190000000000003
aF5.7240000000000002
asS'http---cajamar.es'
p562
(lp563
F7.1230000000000002
aF5.4050000000000002
aF9.0229999999999997
aF10.5
aF10.800000000000001
aF9.5269999999999992
aF5.8109999999999999
aF4.8090000000000002
aF5.4960000000000004
aF12.6
asS'http---mysearchdial.com'
p564
(lp565
F5.242
aF5.9589999999999996
aF12
aF6.2990000000000004
aF11.9
aF5.5490000000000004
aF10.699999999999999
aF5.306
aF12.6
aF5.617
asS'http---amazon.de'
p566
(lp567
F6.9589999999999996
aF12.5
aF6.4960000000000004
aF9.6189999999999998
aF8.7300000000000004
aF6.5629999999999997
aF6.4589999999999996
aF5.6600000000000001
aF6.2990000000000004
aF6.8860000000000001
asS'http---dailymotion.com'
p568
(lp569
F8.3930000000000007
aF5.702
aF6.6379999999999999
aF5.4550000000000001
aF6.6689999999999996
aF9.5120000000000005
aF5.766
aF7.0460000000000003
aF5.3630000000000004
aF6.492
asS'http---seg-social.es'
p570
(lp571
F5.593
aF6.9859999999999998
aF6.6180000000000003
aF7.2359999999999998
aF8.7040000000000006
aF5.5640000000000001
aF9.6709999999999994
aF7.2389999999999999
aF6.2050000000000001
aF5.5640000000000001
asS'http---libertagia.com'
p572
(lp573
F12.300000000000001
aF6.0419999999999998
aF14.300000000000001
aF11.4
aF13.199999999999999
aF14.4
aF14.4
aF13.300000000000001
aF14.199999999999999
aF14.300000000000001
asS'http---finofilipino.org'
p574
(lp575
F16
aF16
aF15.6
aF15.4
aF15.5
aF16.100000000000001
aF15.6
aF16.300000000000001
aF17
aF15.1
asS'http---spiegel.de'
p576
(lp577
F14.5
aF13.5
aF15.5
aF14.1
aF14.1
aF13.4
aF13.800000000000001
aF13.699999999999999
aF14.5
aF14.6
asS'http---vimeo.com'
p578
(lp579
F10.199999999999999
aF6.0860000000000003
aF9.7230000000000008
aF6.8739999999999997
aF6.7380000000000004
aF5.3949999999999996
aF5.2149999999999999
aF7.7430000000000003
aF6.1669999999999998
aF15.5
asS'http---evobanco.com'
p580
(lp581
F14.4
aF14.300000000000001
aF14
aF13.4
aF13.6
aF13.9
aF14
aF6.6520000000000001
aF15.9
aF13.5
asS'http---farodevigo.es'
p582
(lp583
F14.300000000000001
aF14.699999999999999
aF14
aF13.800000000000001
aF14.6
aF14.800000000000001
aF16.300000000000001
aF13.9
aF13.5
aF13.800000000000001
asS'http---nba.com'
p584
(lp585
F13.6
aF12.300000000000001
aF15.800000000000001
aF13.199999999999999
aF13.199999999999999
aF12.300000000000001
aF14.300000000000001
aF13.199999999999999
aF13.199999999999999
aF12.300000000000001
asS'http---softonic.com'
p586
(lp587
F11.9
aF10.800000000000001
aF12.1
aF13
aF14.6
aF12.800000000000001
aF8.7200000000000006
aF9.4250000000000007
aF13.6
aF12.800000000000001
asS'http---conduit.com'
p588
(lp589
F15.800000000000001
aF9.5299999999999994
aF9.2880000000000003
aF12
aF10.9
aF9.3089999999999993
aF7.5540000000000003
aF12
aF9.2959999999999994
aF9.4100000000000001
asS'http---stackoverflow.com'
p590
(lp591
F5.8940000000000001
aF10.6
aF11.699999999999999
aF5.399
aF7.0730000000000004
aF5.2729999999999997
aF7.3099999999999996
aF7.6980000000000004
aF8.0609999999999999
aF5.7140000000000004
asS'http---argentinawarez.com'
p592
(lp593
F14.9
aF10.4
aF10.6
aF11
aF10.9
aF10.4
aF12.699999999999999
aF9.9670000000000005
aF9.2739999999999991
aF10.300000000000001
asS'http---elperiodico.com'
p594
(lp595
F14.6
aF14.6
aF14.5
aF14.699999999999999
aF14.6
aF14.4
aF13.9
aF14.5
aF14.6
aF14.6
asS'http---aliexpress.com'
p596
(lp597
F10.300000000000001
aF9.3550000000000004
aF14
aF12.9
aF14.4
aF13.5
aF15.5
aF9.8140000000000001
aF10.1
aF9.5310000000000006
asS'http---archive.org'
p598
(lp599
F10.699999999999999
aF12.800000000000001
aF14.300000000000001
aF9.4209999999999994
aF9.1039999999999992
aF9.2899999999999991
aF8.6950000000000003
aF12.300000000000001
aF12.5
aF11.6
asS'http---meneame.net'
p600
(lp601
F9.7609999999999992
aF8.5589999999999993
aF13.800000000000001
aF11.199999999999999
aF10.5
aF15.5
aF11.9
aF14.1
aF12.5
aF13.800000000000001
asS'http---coches.net'
p602
(lp603
F5.7430000000000003
aF11.4
aF5.6970000000000001
aF7.8490000000000002
aF6.7329999999999997
aF11
aF13
aF7.7069999999999999
aF6.6210000000000004
aF9.3000000000000007
asS'http---infojobs.net'
p604
(lp605
F6.6120000000000001
aF12
aF6.6429999999999998
aF5.9610000000000003
aF11.1
aF7.0860000000000003
aF6.2969999999999997
aF6.2619999999999996
aF6.9989999999999997
aF5.8140000000000001
asS'http---laverdad.es'
p606
(lp607
F10.300000000000001
aF6.0830000000000002
aF11
aF7.9589999999999996
aF11.300000000000001
aF6.851
aF7.7709999999999999
aF7.1680000000000001
aF7.3940000000000001
aF7.2750000000000004
asS'http---libertaddigital.com'
p608
(lp609
F11.4
aF8.9879999999999995
aF9.2469999999999999
aF13.5
aF8.7769999999999992
aF12.199999999999999
aF14.5
aF13.4
aF9.7739999999999991
aF15.199999999999999
asS'http---investing.com'
p610
(lp611
F12.9
aF13
aF13.6
aF12.300000000000001
aF11
aF14.300000000000001
aF13.699999999999999
aF12.699999999999999
aF12.6
aF11.5
asS'http---magnovideo.com'
p612
(lp613
F8.9169999999999998
aF9.9100000000000001
aF10.300000000000001
aF9.3889999999999993
aF9.609
aF6.3380000000000001
aF8.8780000000000001
aF9.0719999999999992
aF8.5809999999999995
aF9.4670000000000005
asS'http---antena3.com'
p614
(lp615
F10.699999999999999
aF5.5700000000000003
aF8.4949999999999992
aF13.4
aF7.8959999999999999
aF10
aF11
aF15.6
aF12.6
aF13.9
asS'http---grooveshark.com'
p616
(lp617
F5.9260000000000002
aF9.0259999999999998
aF5.3620000000000001
aF5.7590000000000003
aF6.4359999999999999
aF5.9260000000000002
aF6.5060000000000002
aF5.9459999999999997
aF7.5359999999999996
aF6.2690000000000001
asS'http---invertia.com'
p618
(lp619
F13.800000000000001
aF14.300000000000001
aF14.199999999999999
aF13.800000000000001
aF14
aF14.4
aF13.800000000000001
aF14
aF14.1
aF13.4
asS'http---3djuegos.com'
p620
(lp621
F8.6850000000000005
aF12.300000000000001
aF15
aF7.6989999999999998
aF9.6319999999999997
aF9.2460000000000004
aF12.800000000000001
aF12.300000000000001
aF12.4
aF9.9760000000000009
asS'http---nih.gov'
p622
(lp623
F7.4290000000000003
aF14.4
aF13.699999999999999
aF6.617
aF5.2199999999999998
aF7.5759999999999996
aF6.8129999999999997
aF6.6870000000000003
aF6.7649999999999997
aF6.6639999999999997
asS'http---blogspot.com'
p624
(lp625
F13.699999999999999
aF5.3310000000000004
aF6.8680000000000003
aF13
aF6.4290000000000003
aF9.0239999999999991
aF5.383
aF8.6639999999999997
aF13.6
aF9.2959999999999994
asS'http---imgur.com'
p626
(lp627
F7.4969999999999999
aF8.5429999999999993
aF5.7069999999999999
aF6.5149999999999997
aF9.1280000000000001
aF6.5330000000000004
aF10.9
aF5.5960000000000001
aF14.5
aF5.968
asS'http---europapress.es'
p628
(lp629
F11.699999999999999
aF14.4
aF14.4
aF10.699999999999999
aF14.4
aF14.4
aF14.5
aF13.9
aF16.199999999999999
aF15.9
asS'http---vidspot.net'
p630
(lp631
F6.0140000000000002
aF8.5220000000000002
aF5.8120000000000003
aF10.199999999999999
aF6.782
aF5.8959999999999999
aF5.6230000000000002
aF5.6769999999999996
aF6.2140000000000004
aF6.1470000000000002
asS'http---lavozdegalicia.es'
p632
(lp633
F15.199999999999999
aF14.4
aF14.6
aF14.4
aF16.5
aF14.5
aF14.6
aF16.699999999999999
aF14.199999999999999
aF13.800000000000001
asS'http---tiempo.com'
p634
(lp635
F9.8030000000000008
aF10.6
aF9.9930000000000003
aF9.9649999999999999
aF9.0779999999999994
aF10.4
aF14
aF8.0609999999999999
aF9.7089999999999996
aF8.1449999999999996
asS'http---vavel.com'
p636
(lp637
F15.800000000000001
aF5.6449999999999996
aF12.4
aF14.199999999999999
aF13.199999999999999
aF11.1
aF12.9
aF12.4
aF13.4
aF11.1
asS'http---1and1.es'
p638
(lp639
F14.6
aF14.6
aF14.9
aF14.699999999999999
aF14.800000000000001
aF14.300000000000001
aF14.800000000000001
aF14.699999999999999
aF14.800000000000001
aF14.699999999999999
asS'http---beeg.com'
p640
(lp641
F10.199999999999999
aF6.2599999999999998
aF9.7240000000000002
aF5.1669999999999998
aF7.9249999999999998
aF7.6959999999999997
aF8.4390000000000001
aF7.6440000000000001
aF12.800000000000001
aF6.367
asS'http---xnxx.com'
p642
(lp643
F6.9450000000000003
aF6.9320000000000004
aF12.9
aF5.9020000000000001
aF6.9329999999999998
aF8.9629999999999992
aF10.800000000000001
aF5.6260000000000003
aF9.2910000000000004
aF5.0679999999999996
asS'http---trovit.es'
p644
(lp645
F6.2670000000000003
aF8.8729999999999993
aF8.516
aF9.3569999999999993
aF10.1
aF7.1200000000000001
aF9.7690000000000001
aF9.9979999999999993
aF8.6170000000000009
aF9.5489999999999995
asS'http---webempresa.com'
p646
(lp647
F10.4
aF10.300000000000001
aF11.699999999999999
aF9.2889999999999997
aF8.9670000000000005
aF8.9529999999999994
aF9.5760000000000005
aF10.1
aF9.6059999999999999
aF9.7759999999999998
asS'http---torrentz.eu'
p648
(lp649
F10.9
aF8.5419999999999998
aF5.976
aF8.1519999999999992
aF5.3630000000000004
aF6.1870000000000003
aF8.1280000000000001
aF8.1099999999999994
aF6.9489999999999998
aF9.6419999999999995
asS'http---appmefun.com'
p650
(lp651
F5.7060000000000004
aF10.199999999999999
aF13.199999999999999
aF10.4
aF9.2880000000000003
aF7.032
aF8.4139999999999997
aF5.8920000000000003
aF12.1
aF5.8120000000000003
asS'http---popads.net'
p652
(lp653
F5.5599999999999996
aF6.0910000000000002
aF6.79
aF6.6520000000000001
aF8.5899999999999999
aF6.0839999999999996
aF6.4420000000000002
aF8.734
aF6.9500000000000002
aF6.3250000000000002
asS'http---change.org'
p654
(lp655
F14.1
aF8.6639999999999997
aF10.5
aF6.9470000000000001
aF7.6369999999999996
aF9.1300000000000008
aF10.699999999999999
aF13.699999999999999
aF12.300000000000001
aF9.3330000000000002
asS'http---secureserver.net'
p656
(lp657
F8.5969999999999995
aF7.7770000000000001
aF7.3920000000000003
aF8.0890000000000004
aF13.1
aF7.1989999999999998
aF7.7859999999999996
aF7.7290000000000001
aF7.165
aF7.4660000000000002
asS'http---0427d7.se'
p658
(lp659
F8.548
aF13.199999999999999
aF5.875
aF5.2290000000000001
aF6.2649999999999997
aF5.0880000000000001
aF13.9
aF12.800000000000001
aF8.6170000000000009
aF5.3449999999999998
asS'http---lineadirecta.com'
p660
(lp661
F14.5
aF6.7350000000000003
aF10.4
aF7.9699999999999998
aF8.6820000000000004
aF8.6590000000000007
aF7.8579999999999997
aF10.199999999999999
aF8.2560000000000002
aF14.5
asS'http---mostshinstar.com'
p662
(lp663
F5.5330000000000004
aF6.4809999999999999
aF5.9269999999999996
aF7.5350000000000001
aF7.9649999999999999
aF5.4180000000000001
aF8.8780000000000001
aF7.306
aF5.4939999999999998
aF7.8959999999999999
asS'http---zippyshare.com'
p664
(lp665
F5.5419999999999998
aF5.6210000000000004
aF12.699999999999999
aF6.3170000000000002
aF9.468
aF6.9269999999999996
aF6.8179999999999996
aF10
aF5.5640000000000001
aF5.9320000000000004
asS'http---leroymerlin.es'
p666
(lp667
F10.4
aF14.5
aF8.8919999999999995
aF7.1109999999999998
aF12.699999999999999
aF7.3739999999999997
aF8.5980000000000008
aF14.199999999999999
aF14.4
aF14.9
asS'http---facebook.com'
p668
(lp669
F8.6129999999999995
aF9.5600000000000005
aF13.4
aF13.300000000000001
aF6.407
aF5.3940000000000001
aF12.300000000000001
aF13.1
aF6.9080000000000004
aF6.5800000000000001
asS'http---fiverr.com'
p670
(lp671
F12.699999999999999
aF13.199999999999999
aF13.9
aF13.199999999999999
aF15.4
aF14.1
aF13.199999999999999
aF13.199999999999999
aF16
aF12.800000000000001
asS'http---hp.com'
p672
(lp673
F8.2769999999999992
aF14.6
aF8.8480000000000008
aF12.9
aF9.2949999999999999
aF6.2569999999999997
aF12.199999999999999
aF9.9600000000000009
aF8.9760000000000009
aF9.5749999999999993
asS'http---amateur.tv'
p674
(lp675
F15.6
aF8.5909999999999993
aF10.4
aF12.800000000000001
aF9.9789999999999992
aF12.199999999999999
aF16.100000000000001
aF13
aF6.5679999999999996
aF12.1
asS'http---hola.com'
p676
(lp677
F5.7919999999999998
aF6.1109999999999998
aF6.1820000000000004
aF6.8170000000000002
aF8.3010000000000002
aF7.234
aF7.3049999999999997
aF6.0330000000000004
aF7.5060000000000002
aF8.6660000000000004
asS'http---eldiario.es'
p678
(lp679
F14.5
aF14.6
aF13
aF14.699999999999999
aF14.5
aF14.6
aF14.1
aF14.5
aF14.699999999999999
aF14.9
asS'http---wetransfer.com'
p680
(lp681
F8.5640000000000001
aF11.6
aF13
aF10.300000000000001
aF10
aF11.5
aF10.6
aF15.300000000000001
aF8.1980000000000004
aF10.300000000000001
asS'http---filmaffinity.com'
p682
(lp683
F6.6639999999999997
aF7.1639999999999997
aF6.3719999999999999
aF6.2089999999999996
aF6.1589999999999998
aF10.4
aF6.6449999999999996
aF8.8469999999999995
aF14.6
aF6.9039999999999999
asS'http---tumblr.com'
p684
(lp685
F10.9
aF8.3659999999999997
aF14.199999999999999
aF11.300000000000001
aF10.5
aF11.300000000000001
aF12.300000000000001
aF14.6
aF11
aF14.199999999999999
asS'http---pisos.com'
p686
(lp687
F7.133
aF8.1660000000000004
aF10.6
aF5.8890000000000002
aF9.8320000000000007
aF5.7640000000000002
aF9.7050000000000001
aF9.4420000000000002
aF9.2899999999999991
aF5.5679999999999996
asS'http---escapadarural.com'
p688
(lp689
F5.2839999999999998
aF6.6020000000000003
aF5.2569999999999997
aF5.9240000000000004
aF6.9160000000000004
aF9.4809999999999999
aF7.0110000000000001
aF7.3680000000000003
aF6.641
aF7.4630000000000001
asS'http---arsys.es'
p690
(lp691
F9.9290000000000003
aF11.199999999999999
aF5.5910000000000002
aF12.5
aF9.25
aF6.4569999999999999
aF6.9720000000000004
aF5.2119999999999997
aF6.8470000000000004
aF6.4020000000000001
asS'http---kickass.to'
p692
(lp693
F9.548
aF14.300000000000001
aF6.7939999999999996
aF8.2780000000000005
aF13.6
aF8.3529999999999998
aF11.300000000000001
aF9.5969999999999995
aF6.0620000000000003
aF12.5
asS'http---groupon.es'
p694
(lp695
F9.6129999999999995
aF10.9
aF11.300000000000001
aF6.8520000000000003
aF9.1809999999999992
aF8.0150000000000006
aF5.7599999999999998
aF13.1
aF7.6589999999999998
aF8.3019999999999996
asS'http---abc.es'
p696
(lp697
F15.1
aF14.300000000000001
aF14.6
aF10.6
aF12.4
aF14.800000000000001
aF15.6
aF16.300000000000001
aF12.300000000000001
aF11.4
asS'http---bitacoras.com'
p698
(lp699
F6.9100000000000001
aF5.548
aF9.7750000000000004
aF6.6900000000000004
aF8.9659999999999993
aF7.9139999999999997
aF8.7210000000000001
aF9.4489999999999998
aF8.5060000000000002
aF5.5309999999999997
asS'http---skype.com'
p700
(lp701
F7.0300000000000002
aF8.4120000000000008
aF11.800000000000001
aF7.7919999999999998
aF12.4
aF7.4960000000000004
aF7.5499999999999998
aF11.199999999999999
aF6.5679999999999996
aF7.8559999999999999
asS'http---ovh.net'
p702
(lp703
F8.5410000000000004
aF8.2759999999999998
aF1.6759999999999999
aF7.625
aF7.2279999999999998
aF9.734
aF8.5440000000000005
aF7.6379999999999999
aF8.2309999999999999
aF7.7949999999999999
asS'http---htcmania.com'
p704
(lp705
F13.300000000000001
aF13.9
aF16.199999999999999
aF16.5
aF14.4
aF13.9
aF14
aF14.4
aF16
aF14.199999999999999
asS'http---ebay.es'
p706
(lp707
F12.1
aF5.5629999999999997
aF7.25
aF8.0660000000000007
aF5.6269999999999998
aF5.4470000000000001
aF8.7420000000000009
aF6.7619999999999996
aF8.1890000000000001
aF5.915
asS'http---live.com'
p708
(lp709
F8.1639999999999997
aF10.1
aF14.300000000000001
aF12.5
aF7.7770000000000001
aF5.3170000000000002
aF9.3460000000000001
aF5.1050000000000004
aF5.242
aF6.8869999999999996
asS'http---wikihow.com'
p710
(lp711
F5.6929999999999996
aF14.9
aF6.0579999999999998
aF5.7690000000000001
aF14.1
aF5.5019999999999998
aF6.6719999999999997
aF6.101
aF11.800000000000001
aF14.6
asS'http---google.es'
p712
(lp713
F5.6269999999999998
aF12.300000000000001
aF2.9199999999999999
aF5.3799999999999999
aF10.4
aF9.5790000000000006
aF5.9749999999999996
aF6.9550000000000001
aF5.5179999999999998
aF5.5949999999999998
asS'http---ashleyrnadison.com'
p714
(lp715
F7.1079999999999997
aF6.4809999999999999
aF5.5359999999999996
aF5.6600000000000001
aF12.699999999999999
aF8.5519999999999996
aF0
aF5.5350000000000001
aF5.2519999999999998
aF5.4160000000000004
asS'http---xhamster.com'
p716
(lp717
F10.199999999999999
aF8.3179999999999996
aF6.6559999999999997
aF5.2949999999999999
aF9.6110000000000007
aF6.298
aF8.6910000000000007
aF7.0869999999999997
aF5.6719999999999997
aF8.7279999999999998
asS'http---bing.com'
p718
(lp719
F7.3890000000000002
aF5.7869999999999999
aF7.3019999999999996
aF15.199999999999999
aF5.274
aF5.5629999999999997
aF10.6
aF6.7599999999999998
aF14
aF6.4539999999999997
asS'http---alt1040.com'
p720
(lp721
F14.5
aF14.300000000000001
aF14.300000000000001
aF15.800000000000001
aF11.800000000000001
aF13
aF15.800000000000001
aF14.1
aF11.300000000000001
aF15.800000000000001
asS'http---amazonaws.com'
p722
(lp723
F12.1
aF8.9380000000000006
aF7.8289999999999997
aF7.8869999999999996
aF7.5359999999999996
aF10.5
aF8.2360000000000007
aF10.9
aF7.3070000000000004
aF7.4829999999999997
asS'http---foro20.com'
p724
(lp725
F6.4509999999999996
aF9.5030000000000001
aF5.5250000000000004
aF7.8579999999999997
aF7.548
aF9.8439999999999994
aF8.093
aF5.9459999999999997
aF5.3769999999999998
aF7.0910000000000002
asS'http---redsys.es'
p726
(lp727
F5.9109999999999996
aF6.4000000000000004
aF5.6459999999999999
aF5.6509999999999998
aF9.6430000000000007
aF8.7680000000000007
aF5.4089999999999998
aF6.6299999999999999
aF6.4450000000000003
aF6.9100000000000001
asS'http---battle.net'
p728
(lp729
F6.2000000000000002
aF6.6769999999999996
aF6.0359999999999996
aF8.266
aF9.4570000000000007
aF6.1360000000000001
aF10.699999999999999
aF5.2590000000000003
aF6.5869999999999997
aF14.9
asS'http---sourceforge.net'
p730
(lp731
F15.6
aF13.199999999999999
aF10.699999999999999
aF11.9
aF10
aF10
aF10.199999999999999
aF12.199999999999999
aF9.2219999999999995
aF9.6940000000000008
asS'http---themeforest.net'
p732
(lp733
F5.2560000000000002
aF5.2629999999999999
aF6.5949999999999998
aF7.931
aF7.1020000000000003
aF7.0810000000000004
aF8.5749999999999993
aF5.4409999999999998
aF9.6609999999999996
aF8.2409999999999997
asS'http---media.tumblr.com'
p734
(lp735
F7.0529999999999999
aF12.699999999999999
aF9.2769999999999992
aF5.2599999999999998
aF12.6
aF5.2839999999999998
aF14.199999999999999
aF6.9889999999999999
aF13.4
aF13.6
asS'http---mileroticos.com'
p736
(lp737
F13.5
aF14.4
aF11.6
aF11.699999999999999
aF9.6329999999999991
aF11.4
aF15
aF8.359
aF14.4
aF12.9
asS'http---xataka.com'
p738
(lp739
F8.9450000000000003
aF12
aF12.1
aF8.7699999999999996
aF12.5
aF9.2409999999999997
aF9.9939999999999998
aF8.359
aF16.300000000000001
aF11.800000000000001
asS'http---mforos.com'
p740
(lp741
F8.9049999999999994
aF7.1760000000000002
aF5.3460000000000001
aF5.4459999999999997
aF10.5
aF8.2059999999999995
aF6.2640000000000002
aF5.1349999999999998
aF10.4
aF5.2830000000000004
asS'http---elcorreo.com'
p742
(lp743
F7.4900000000000002
aF10.4
aF6.835
aF13.1
aF8.6609999999999996
aF7.8470000000000004
aF6.8630000000000004
aF12.4
aF8.5969999999999995
aF10.300000000000001
asS'http---zanox.com'
p744
(lp745
F8.798
aF12.6
aF11.6
aF10.699999999999999
aF8.8740000000000006
aF9.1869999999999994
aF8.9489999999999998
aF9.4510000000000005
aF8.0869999999999997
aF11.1
asS'http---elotrolado.net'
p746
(lp747
F6.3710000000000004
aF9.2780000000000005
aF5.3470000000000004
aF6.5339999999999998
aF9.4589999999999996
aF11.4
aF8.7530000000000001
aF5.1799999999999997
aF6.3330000000000002
aF7.0700000000000003
asS'http---xunta.es'
p748
(lp749
F8.7490000000000006
aF6.2190000000000003
aF6.7670000000000003
aF6.3769999999999998
aF5.21
aF9.4920000000000009
aF6.7060000000000004
aF14.300000000000001
aF6.8739999999999997
aF7.1239999999999997
asS'http---diarioinformacion.com'
p750
(lp751
F14.5
aF14.300000000000001
aF14.5
aF14.6
aF16.100000000000001
aF16.600000000000001
aF15.699999999999999
aF14.6
aF14.699999999999999
aF14.800000000000001
asS'http---todoexpertos.com'
p752
(lp753
F15.300000000000001
aF13.5
aF13.800000000000001
aF16.100000000000001
aF14.4
aF15.699999999999999
aF14.699999999999999
aF15.699999999999999
aF12.4
aF13.9
asS'http---mediafire.com'
p754
(lp755
F9.1099999999999994
aF10.4
aF8.1199999999999992
aF10.5
aF9.1080000000000005
aF7.7679999999999998
aF8.0220000000000002
aF11.699999999999999
aF8.3140000000000001
aF7.4349999999999996
asS'http---rtve.es'
p756
(lp757
F14.6
aF14.300000000000001
aF14.5
aF14.6
aF14.6
aF14.800000000000001
aF14.300000000000001
aF14.300000000000001
aF14.5
aF14.4
asS'http---prestashop.com'
p758
(lp759
F15.4
aF12.9
aF12.300000000000001
aF12.6
aF12.800000000000001
aF14
aF11.699999999999999
aF12.800000000000001
aF14
aF12.5
asS'http---quondos.com'
p760
(lp761
F14.5
aF14.5
aF13
aF14.5
aF14.300000000000001
aF14.4
aF13.800000000000001
aF14.5
aF14.1
aF14.1
asS'http---bookryanair.com'
p762
(lp763
F5.5990000000000002
aF7.758
aF5.4809999999999999
aF5.5519999999999996
aF8.9149999999999991
aF6.5170000000000003
aF6.556
aF5.3339999999999996
aF6.7779999999999996
aF9.0280000000000005
asS'http---blogspot.com.es'
p764
(lp765
F5.6740000000000004
aF5.5890000000000004
aF5.702
aF5.6619999999999999
aF5.6840000000000002
aF5.6669999999999998
aF5.7800000000000002
aF5.3959999999999999
aF5.4530000000000003
aF11
asS'http---que.es'
p766
(lp767
F14.1
aF14.4
aF14.1
aF14.800000000000001
aF14.6
aF14.5
aF14.800000000000001
aF14.300000000000001
aF14.5
aF14.5
asS'http---gencat.cat'
p768
(lp769
F6.5810000000000004
aF13.6
aF10.199999999999999
aF6.6120000000000001
aF8.8330000000000002
aF11.5
aF9.2110000000000003
aF9.5909999999999993
aF11
aF9.5530000000000008
asS'http---ign.com'
p770
(lp771
F7.931
aF8.3930000000000007
aF7.5199999999999996
aF6.742
aF8.1489999999999991
aF6.7210000000000001
aF6.633
aF6.4859999999999998
aF5.0979999999999999
aF6.6470000000000002
asS'http---eltiempo.es'
p772
(lp773
F11.199999999999999
aF12.6
aF12.199999999999999
aF12.6
aF13.1
aF12.4
aF12.6
aF12.9
aF14.699999999999999
aF13.5
asS'http---domestika.org'
p774
(lp775
F10.800000000000001
aF12.800000000000001
aF10.199999999999999
aF10.800000000000001
aF10.699999999999999
aF10.800000000000001
aF10.699999999999999
aF11.199999999999999
aF10.6
aF10.800000000000001
asS'http---burbuja.info'
p776
(lp777
F13.1
aF6.601
aF6.8780000000000001
aF8.6630000000000003
aF6.3019999999999996
aF11
aF15.800000000000001
aF7.3300000000000001
aF7.1950000000000003
aF15.5
asS'http---mejortorrent.com'
p778
(lp779
F6.4039999999999999
aF10.4
aF6.2619999999999996
aF7.0119999999999996
aF5.7510000000000003
aF7.0800000000000001
aF10.199999999999999
aF6.1219999999999999
aF7.6369999999999996
aF6.0339999999999998
asS'http---divxatope.com'
p780
(lp781
F14.800000000000001
aF12.699999999999999
aF14.300000000000001
aF14.5
aF14.699999999999999
aF14
aF14.4
aF15.800000000000001
aF14.5
aF14.5
asS'http---segundamano.es'
p782
(lp783
F7.7329999999999997
aF7.3230000000000004
aF7.827
aF8.7080000000000002
aF10.1
aF10.5
aF8.3859999999999992
aF8.6999999999999993
aF8.5760000000000005
aF8.0660000000000007
asS'http---addmefast.com'
p784
(lp785
F12.9
aF10.699999999999999
aF13.1
aF9.0839999999999996
aF15.800000000000001
aF9.5120000000000005
aF14.5
aF13.699999999999999
aF9.2210000000000001
aF11.1
asS'http---gizmodo.com'
p786
(lp787
F11.1
aF12.4
aF13.699999999999999
aF13.9
aF15.300000000000001
aF12.699999999999999
aF16.699999999999999
aF16.300000000000001
aF13.300000000000001
aF16.399999999999999
asS'http---ayudawp.com'
p788
(lp789
F14.199999999999999
aF14.5
aF14.199999999999999
aF12.4
aF15.800000000000001
aF13.9
aF12.6
aF14.300000000000001
aF13.699999999999999
aF15.699999999999999
asS'http---exoclick.com'
p790
(lp791
F12.4
aF7.9829999999999997
aF6.9249999999999998
aF14.199999999999999
aF9.0429999999999993
aF9.1289999999999996
aF12.5
aF15.6
aF9.1649999999999991
aF8.5980000000000008
asS'http---sumaclicks.com'
p792
(lp793
F9.2620000000000005
aF6.6680000000000001
aF8.7200000000000006
aF7.4660000000000002
aF8.3829999999999991
aF8.6110000000000007
aF9.2680000000000007
aF8.2249999999999996
aF10.300000000000001
aF8.4299999999999997
asS'http---rapidgator.net'
p794
(lp795
F5.3330000000000002
aF8.2129999999999992
aF6.2400000000000002
aF9.0449999999999999
aF7.6820000000000004
aF10.300000000000001
aF12.699999999999999
aF6.3520000000000003
aF6.5499999999999998
aF5.5
asS'http---plus.es'
p796
(lp797
F14.800000000000001
aF13.6
aF14.699999999999999
aF14.5
aF14
aF13.699999999999999
aF13.699999999999999
aF14.6
aF15.1
aF14.800000000000001
asS'http---milanuncios.com'
p798
(lp799
F14.6
aF9.0540000000000003
aF10.4
aF7.5419999999999998
aF7.109
aF7.234
aF9.3350000000000009
aF8.343
aF8.6389999999999993
aF5.3040000000000003
asS'http---pccomponentes.com'
p800
(lp801
F9.3800000000000008
aF6.5599999999999996
aF12.800000000000001
aF6.1660000000000004
aF5.1079999999999997
aF6.2859999999999996
aF6.5259999999999998
aF6.6699999999999999
aF6.3620000000000001
aF7.0700000000000003
asS'http---loading-delivery1.com'
p802
(lp803
F5.2569999999999997
aF9.3160000000000007
aF6.3769999999999998
aF8.2590000000000003
aF6.4349999999999996
aF7.1420000000000003
aF15.1
aF8.2249999999999996
aF5.2249999999999996
aF9.0869999999999997
asS'http---iminent.com'
p804
(lp805
F8.1150000000000002
aF8.5050000000000008
aF6.4500000000000002
aF7.6120000000000001
aF6.907
aF7.8140000000000001
aF6.2640000000000002
aF10.4
aF8.0340000000000007
aF7.8170000000000002
asS'http---reddit.com'
p806
(lp807
F9.1790000000000003
aF7.3419999999999996
aF7.0369999999999999
aF9.2530000000000001
aF7.8010000000000002
aF8.2579999999999991
aF6.6639999999999997
aF6.71
aF5.633
aF10.6
asS'http---adf.ly'
p808
(lp809
F6.6340000000000003
aF7.3700000000000001
aF6.7169999999999996
aF6.7679999999999998
aF7.1989999999999998
aF9.1189999999999998
aF7.1500000000000004
aF9.3510000000000009
aF9.6880000000000006
aF14.4
asS'http---groupalia.com'
p810
(lp811
F8.9710000000000001
aF8.875
aF10.300000000000001
aF7.6040000000000001
aF5.3860000000000001
aF5.2030000000000003
aF9.7420000000000009
aF9.2550000000000008
aF9.9689999999999994
aF13.800000000000001
asS'http---serviporno.com'
p812
(lp813
F7.4690000000000003
aF8.7620000000000005
aF12.6
aF8.7249999999999996
aF7.4829999999999997
aF6.992
aF8.8089999999999993
aF9.5250000000000004
aF7.2290000000000001
aF7.7960000000000003
asS'http---woorank.com'
p814
(lp815
F9.2599999999999998
aF6.2869999999999999
aF6.2039999999999997
aF9.218
aF14.6
aF14
aF8.1080000000000005
aF5.516
aF5.492
aF6.7960000000000003
asS'http---elpais.com'
p816
(lp817
F14.1
aF14.4
aF14.4
aF14.4
aF14.6
aF15
aF14.4
aF14.699999999999999
aF14.5
aF16.100000000000001
asS'http---anuntiomatic.com'
p818
(lp819
F5.4169999999999998
aF10.1
aF7.75
aF6.601
aF12.800000000000001
aF10.800000000000001
aF5.4139999999999997
aF5.1319999999999997
aF12
aF11.699999999999999
asS'http---mailchimp.com'
p820
(lp821
F14.199999999999999
aF7.2249999999999996
aF6.7919999999999998
aF8.9640000000000004
aF6.4299999999999997
aF6.5129999999999999
aF12.699999999999999
aF9.9269999999999996
aF6.8639999999999999
aF5.8730000000000002
asS'http---bet365.es'
p822
(lp823
F9.1210000000000004
aF14
aF8.6929999999999996
aF12.1
aF7.6210000000000004
aF7.6310000000000002
aF7.3760000000000003
aF8.1319999999999997
aF8.7799999999999994
aF9.5009999999999994
asS'http---minube.com'
p824
(lp825
F12
aF12.1
aF12.300000000000001
aF12.1
aF12.5
aF12
aF12.800000000000001
aF12.6
aF11.9
aF12.300000000000001
asS'http---geniuzz.com'
p826
(lp827
F9.7789999999999999
aF10.300000000000001
aF13.6
aF11
aF12
aF12.1
aF9.5540000000000003
aF9.8170000000000002
aF10.4
aF9.5399999999999991
asS'http---vente-privee.com'
p828
(lp829
F12
aF14.4
aF13.300000000000001
aF12.9
aF11.800000000000001
aF14.199999999999999
aF14.199999999999999
aF13
aF10.9
aF15.300000000000001
asS'http---cpmterra.com'
p830
(lp831
F11.1
aF6.367
aF6.5439999999999996
aF9.0470000000000006
aF6.0640000000000001
aF5.4169999999999998
aF10.300000000000001
aF14.800000000000001
aF6.4420000000000002
aF7.4729999999999999
asS'http---eleconomista.es'
p832
(lp833
F14.6
aF14.300000000000001
aF14.4
aF14.199999999999999
aF14.1
aF15.800000000000001
aF14.699999999999999
aF14.5
aF14.6
aF15.5
asS'http---thepiratebay.se'
p834
(lp835
F5.7889999999999997
aF5.6079999999999997
aF12
aF5.6340000000000003
aF12.5
aF5.4770000000000003
aF5.798
aF5.4000000000000004
aF5.8300000000000001
aF5.9089999999999998
asS'http---lne.es'
p836
(lp837
F13
aF14.5
aF13.6
aF13.800000000000001
aF14.300000000000001
aF14.800000000000001
aF14.300000000000001
aF14.9
aF14.699999999999999
aF14.699999999999999
asS'http---gruposantander.es'
p838
(lp839
F5.4649999999999999
aF10.800000000000001
aF7.1189999999999998
aF5.6699999999999999
aF5.4630000000000001
aF5.3700000000000001
aF6.3579999999999997
aF6.7389999999999999
aF5.4649999999999999
aF8.0199999999999996
asS'http---wishclub.com'
p840
(lp841
F8.7390000000000008
aF6.2510000000000003
aF9.5229999999999997
aF8.9819999999999993
aF6.3959999999999999
aF5.2990000000000004
aF5.6180000000000003
aF6.8849999999999998
aF8.8000000000000007
aF6.4989999999999997
asS'http---tuenti.com'
p842
(lp843
F7.0419999999999998
aF12.199999999999999
aF7.0199999999999996
aF9.4740000000000002
aF13.699999999999999
aF5.4770000000000003
aF9.3320000000000007
aF6.8719999999999999
aF8.4039999999999999
aF8.7910000000000004
asS'http---impactante.tv'
p844
(lp845
F16
aF5.468
aF16
aF16.300000000000001
aF9.1189999999999998
aF16.100000000000001
aF16
aF16.300000000000001
aF7.9199999999999999
aF11.5
asS'http---etsy.com'
p846
(lp847
F7.5700000000000003
aF6.8849999999999998
aF7.9900000000000002
aF5.5039999999999996
aF9.9689999999999994
aF13.4
aF13.9
aF9.5109999999999992
aF10.699999999999999
aF6.798
asS'http---yaencontre.com'
p848
(lp849
F14.4
aF8.5079999999999991
aF9.3420000000000005
aF6.407
aF14.300000000000001
aF6.524
aF6.2590000000000003
aF16
aF7.2290000000000001
aF7.149
asS'http---terra.es'
p850
(lp851
F8.5530000000000008
aF5.5609999999999999
aF5.3869999999999996
aF6.6079999999999997
aF6.6630000000000003
aF6.5380000000000003
aF5.3920000000000003
aF5.4379999999999997
aF6.1589999999999998
aF6.7469999999999999
asS'http---vodafone.es'
p852
(lp853
F14.199999999999999
aF12.800000000000001
aF14.6
aF14.300000000000001
aF13
aF12.199999999999999
aF13.699999999999999
aF13.800000000000001
aF15.1
aF12.800000000000001
asS'http---privalia.com'
p854
(lp855
F8.5850000000000009
aF11.300000000000001
aF5.2329999999999997
aF7.202
aF9.8829999999999991
aF8.4860000000000007
aF5.4429999999999996
aF5.4820000000000002
aF12.199999999999999
aF8.8190000000000008
asS'http---semrush.com'
p856
(lp857
F6.8259999999999996
aF6.9210000000000003
aF7.4900000000000002
aF8.4499999999999993
aF15
aF7.0670000000000002
aF10.699999999999999
aF6.9359999999999999
aF7.2610000000000001
aF7.8979999999999997
asS'http---go.com'
p858
(lp859
F16.199999999999999
aF14
aF14.4
aF15.4
aF16.100000000000001
aF15.199999999999999
aF14
aF16
aF13.1
aF12.5
asS'http---axesor.es'
p860
(lp861
F7.1509999999999998
aF5.6020000000000003
aF8.0530000000000008
aF6.5860000000000003
aF5.3700000000000001
aF9.5969999999999995
aF5.6980000000000004
aF10.4
aF7.1539999999999999
aF5.2359999999999998
asS'http---alibaba.com'
p862
(lp863
F6.2450000000000001
aF5.5519999999999996
aF5.4820000000000002
aF5.5970000000000004
aF7.2149999999999999
aF6.516
aF6.984
aF5.2880000000000003
aF11.6
aF12.4
asS'http---vube.com'
p864
(lp865
F14.199999999999999
aF13.6
aF14.300000000000001
aF14.5
aF14.300000000000001
aF14.5
aF14.5
aF14.199999999999999
aF14.6
aF14.5
asS'http---freepik.es'
p866
(lp867
F8.6379999999999999
aF8.7989999999999995
aF8.1389999999999993
aF10.4
aF9.6170000000000009
aF8.3320000000000007
aF7.516
aF8.0459999999999994
aF11.6
aF8.4600000000000009
asS'http---huffingtonpost.com'
p868
(lp869
F14.4
aF14.300000000000001
aF14.6
aF13.4
aF13.9
aF14.6
aF12.6
aF9.7569999999999997
aF13.699999999999999
aF15.9
asS'http---microsoft.com'
p870
(lp871
F11.1
aF13.6
aF5.9130000000000003
aF12.1
aF10.6
aF14
aF11.199999999999999
aF6.8490000000000002
aF12.4
aF8.5879999999999992
asS'http---beruby.com'
p872
(lp873
F6.5499999999999998
aF8.8059999999999992
aF7.7309999999999999
aF9.4849999999999994
aF5.4160000000000004
aF7.7000000000000002
aF8.7110000000000003
aF8.1999999999999993
aF8.1500000000000004
aF9.5429999999999993
asS'http---lasprovincias.es'
p874
(lp875
F8.4220000000000006
aF13.9
aF9.0239999999999991
aF14.4
aF7.7949999999999999
aF15
aF6.9820000000000002
aF10.800000000000001
aF7.444
aF5.8259999999999996
asS'http---cdmon.com'
p876
(lp877
F5.968
aF7.0570000000000004
aF8.423
aF14.6
aF14.5
aF13.5
aF14.6
aF13.4
aF14.6
aF8.5500000000000007
asS'http---itrack.it'
p878
(lp879
F9.2530000000000001
aF6.2539999999999996
aF8.766
aF6.8730000000000002
aF9.0950000000000006
aF6.7309999999999999
aF7.7789999999999999
aF4.9000000000000004
aF9.0600000000000005
aF5.2199999999999998
asS'http---unetenet.com'
p880
(lp881
F6.7510000000000003
aF7.3159999999999998
aF13.199999999999999
aF14.5
aF12.6
aF13.5
aF13
aF7.907
aF6.6369999999999996
aF7.1319999999999997
asS'http---bloglovin.com'
p882
(lp883
F12.9
aF9.9800000000000004
aF13.199999999999999
aF11.800000000000001
aF14.300000000000001
aF11.5
aF13.699999999999999
aF14.199999999999999
aF15.9
aF9.1300000000000008
asS'http---seriespepito.com'
p884
(lp885
F13.6
aF2.6960000000000002
aF12.800000000000001
aF12.9
aF14.699999999999999
aF13.300000000000001
aF13.5
aF13.300000000000001
aF14.199999999999999
asS'http---es.wordpress.com'
p886
(lp887
F8.3290000000000006
aF6.6159999999999997
aF5.734
aF8.8620000000000001
aF10
aF9.6989999999999998
aF7.7320000000000002
aF5.9279999999999999
aF7.7750000000000004
aF9.1829999999999998
asS'http---habitaclia.com'
p888
(lp889
F12.300000000000001
aF11.9
aF14.800000000000001
aF10
aF15.4
aF13.4
aF13
aF12.4
aF12.1
aF12
asS'http---imdb.com'
p890
(lp891
F14
aF11.699999999999999
aF14.5
aF8.8569999999999993
aF11.9
aF14.6
aF8.4580000000000002
aF13.5
aF7.742
aF13
asS'http---github.com'
p892
(lp893
F9.4649999999999999
aF10.199999999999999
aF9.4870000000000001
aF11
aF11.6
aF13.9
aF13.5
aF12.9
aF9.1910000000000007
aF9.9359999999999999
asS'http---elandroidelibre.com'
p894
(lp895
F6.8600000000000003
aF7.056
aF7.508
aF9.5229999999999997
aF12.5
aF10.300000000000001
aF6.5449999999999999
aF8.6280000000000001
aF9.1969999999999992
aF14.9
asS'http---sport.es'
p896
(lp897
F14.6
aF14.699999999999999
aF14
aF14.6
aF14.6
aF14.699999999999999
aF14.300000000000001
aF15.9
aF14.300000000000001
aF14.699999999999999
asS'http---mitele.es'
p898
(lp899
F16.399999999999999
aF12.1
aF11.9
aF15.1
aF12.5
aF14.5
aF9.6590000000000007
aF12.9
aF9.6760000000000002
aF11.699999999999999
asS'http---divxtotal.com'
p900
(lp901
F7.1820000000000004
aF11.1
aF5.5670000000000002
aF11.199999999999999
aF6.0700000000000003
aF10.5
aF6.4969999999999999
aF6.4800000000000004
aF13.300000000000001
aF8.3840000000000003
asS'http---seur.com'
p902
(lp903
F10.4
aF10.699999999999999
aF12.199999999999999
aF12.5
aF11.699999999999999
aF10.5
aF10.199999999999999
aF10.300000000000001
aF12.5
aF11.300000000000001
asS'http---tripadvisor.es'
p904
(lp905
F7.7999999999999998
aF13.6
aF9.8190000000000008
aF5.9359999999999999
aF9.5619999999999994
aF7.2880000000000003
aF13.699999999999999
aF7.6989999999999998
aF9.7720000000000002
aF11.699999999999999
asS'http---bankinter.com'
p906
(lp907
F5.7130000000000001
aF5.5039999999999996
aF5.3090000000000002
aF5.7370000000000001
aF5.4729999999999999
aF5.5430000000000001
aF6.3970000000000002
aF6.3890000000000002
aF12.199999999999999
aF5.4669999999999996
asS'http---tuspelis.co'
p908
(lp909
F5.4269999999999996
aF5.4379999999999997
aF7.0709999999999997
aF10.1
aF9.0530000000000008
aF5.3360000000000003
aF6.5140000000000002
aF7.593
aF6.2210000000000001
aF6.4820000000000002
asS'http---expansion.com'
p910
(lp911
F10.199999999999999
aF9.7669999999999995
aF16.199999999999999
aF6.7750000000000004
aF5.2329999999999997
aF6.8940000000000001
aF5.2770000000000001
aF14.699999999999999
aF5.6689999999999996
aF6.2140000000000004
asS'http---uned.es'
p912
(lp913
F8.391
aF5.4089999999999998
aF6.1609999999999996
aF5.3460000000000001
aF6.5629999999999997
aF8.8409999999999993
aF6.7130000000000001
aF6.6399999999999997
aF5.5460000000000003
aF6.3200000000000003
asS'http---airbnb.es'
p914
(lp915
F12.699999999999999
aF15.9
aF13.9
aF10.300000000000001
aF9.6950000000000003
aF14
aF6.9219999999999997
aF12
aF5.3289999999999997
aF5.0629999999999997
asS'http---meristation.com'
p916
(lp917
F14
aF14.6
aF14
aF14.4
aF14.6
aF14.800000000000001
aF14.5
aF14.6
aF13.800000000000001
aF14.6
asS'http---github.io'
p918
(lp919
F13
aF14.1
aF12.800000000000001
aF12
aF11.4
aF13
aF13.1
aF12.9
aF12.6
aF16.100000000000001
asS'http---rakuten.es'
p920
(lp921
F14.4
aF8.2620000000000005
aF16
aF5.9880000000000004
aF5.2089999999999996
aF7.9100000000000001
aF6.2949999999999999
aF6.3600000000000003
aF6.6920000000000002
aF6.8540000000000001
asS'http---ciao.es'
p922
(lp923
F6.4509999999999996
aF5.4199999999999999
aF8.6600000000000001
aF5.7430000000000003
aF6.2839999999999998
aF6.133
aF6.4800000000000004
aF5.5259999999999998
aF6.8920000000000003
aF6.3360000000000003
asS'http---loquo.com'
p924
(lp925
F10.300000000000001
aF10.4
aF11.6
aF12.800000000000001
aF7.8789999999999996
aF11.199999999999999
aF11.300000000000001
aF11.6
aF7.1719999999999997
aF11
asS'http---cincodias.com'
p926
(lp927
F14.300000000000001
aF14.5
aF15.9
aF14.4
aF14.4
aF14.4
aF14.199999999999999
aF14.4
aF14.4
aF14.300000000000001
asS'http---20minutos.es'
p928
(lp929
F7.7590000000000003
aF6.6580000000000004
aF10.699999999999999
aF6.8840000000000003
aF5.6100000000000003
aF5.3360000000000003
aF13.9
aF9.0790000000000006
aF7.0499999999999998
aF8.4559999999999995
asS'http---redcoon.es'
p930
(lp931
F7.024
aF6.6219999999999999
aF7.2699999999999996
aF13.800000000000001
aF6.8070000000000004
aF8.4600000000000009
aF7.0910000000000002
aF6.6200000000000001
aF6.843
aF9.3979999999999997
asS'http---elcorteingles.es'
p932
(lp933
F7.2770000000000001
aF6.774
aF8.9770000000000003
aF7.2530000000000001
aF7.0010000000000003
aF6.3979999999999997
aF5.6420000000000003
aF6.774
aF6.8499999999999996
aF7.6449999999999996
asS'http---movistar.es'
p934
(lp935
F7.0739999999999998
aF6.0919999999999996
aF7.8520000000000003
aF7.4619999999999997
aF8.9459999999999997
aF10.199999999999999
aF8.9540000000000006
aF6.2130000000000001
aF5.2290000000000001
aF6.5110000000000001
asS'http---enfemenino.com'
p936
(lp937
F9.907
aF5.3380000000000001
aF7.8659999999999997
aF5.6230000000000002
aF5.3970000000000002
aF9.9190000000000005
aF7.9669999999999996
aF7.6020000000000003
aF5.6719999999999997
aF10.1
asS'http---rae.es'
p938
(lp939
F5.8179999999999996
aF9.3249999999999993
aF5.7590000000000003
aF7.0389999999999997
aF5.3019999999999996
aF5.7549999999999999
aF6.2530000000000001
aF7.407
aF5.6029999999999998
aF5.3869999999999996
asS'http---aeat.es'
p940
(lp941
F6.2519999999999998
aF5.3090000000000002
aF5.3319999999999999
aF9.7490000000000006
aF6.7000000000000002
aF5.4009999999999998
aF5.8710000000000004
aF10.1
aF9.0969999999999995
aF7.0030000000000001
asS'http---sermepa.es'
p942
(lp943
F7.4770000000000003
aF7.2309999999999999
aF7.0030000000000001
aF7.6719999999999997
aF7.8479999999999999
aF6.1790000000000003
aF5.6509999999999998
aF5.9560000000000004
aF5.6689999999999996
aF5.5129999999999999
asS'http---hostgator.com'
p944
(lp945
F10.9
aF10.800000000000001
aF13.199999999999999
aF10.800000000000001
aF13.199999999999999
aF12.199999999999999
aF10.199999999999999
aF13.6
aF10.300000000000001
aF12.199999999999999
asS'http---mundodeportivo.com'
p946
(lp947
F14.6
aF14.699999999999999
aF14.6
aF14.300000000000001
aF14.5
aF14.4
aF14.5
aF14.6
aF14.4
aF14.5
asS'http---ingdirect.es'
p948
(lp949
F7.0090000000000003
aF5.5570000000000004
aF7.1740000000000004
aF10.699999999999999
aF5.7469999999999999
aF5.266
aF6.3360000000000003
aF7.6210000000000004
aF6.0540000000000003
aF7.9349999999999996
asS'http---twimg.com'
p950
(lp951
F6.7119999999999997
aF6.4859999999999998
aF5.1849999999999996
aF8.3859999999999992
aF5.4199999999999999
aF8.0380000000000003
aF6.5629999999999997
aF7.9809999999999999
aF5.524
aF6.4779999999999998
asS'http---linguee.es'
p952
(lp953
F10.1
aF5.4349999999999996
aF5.2850000000000001
aF5.9649999999999999
aF5.3600000000000003
aF5.4329999999999998
aF11.6
aF5.4329999999999998
aF5.391
aF5.3710000000000004
asS'http---edarling.es'
p954
(lp955
F11.800000000000001
aF13.1
aF11.199999999999999
aF11.4
aF10.800000000000001
aF11.699999999999999
aF10.4
aF13.800000000000001
aF10
aF12.9
asS'http---onclickads.net'
p956
(lp957
F6.0209999999999999
aF9.2189999999999994
aF9.3659999999999997
aF5.577
aF7.1970000000000001
aF6.431
aF14.4
aF5.6509999999999998
aF4.9089999999999998
aF5.3789999999999996
asS'http---google.co.uk'
p958
(lp959
F14.1
aF6.8979999999999997
aF9.6750000000000007
aF10.300000000000001
aF8.2300000000000004
aF5.3479999999999999
aF10.9
aF5.085
aF5.2599999999999998
aF5.3479999999999999
asS'http---mediamarkt.es'
p960
(lp961
F5.8479999999999999
aF7.5309999999999997
aF6.5529999999999999
aF13.199999999999999
aF6.0590000000000002
aF6.3049999999999997
aF9.6750000000000007
aF15.199999999999999
aF6.2110000000000003
aF5.4089999999999998
asS'http---adobe.com'
p962
(lp963
F14.800000000000001
aF14.800000000000001
aF14.4
aF14.6
aF14.800000000000001
aF15
aF14.800000000000001
aF14.9
aF15.300000000000001
aF14.800000000000001
asS'http---dinero2014.com'
p964
(lp965
F5.5259999999999998
aF11.6
aF5.5149999999999997
aF7.4669999999999996
aF5.2510000000000003
aF5.2699999999999996
aF9.0690000000000008
aF6.3200000000000003
aF11.1
aF13.699999999999999
asS'http---rt.com'
p966
(lp967
F12.9
aF13.1
aF13
aF13.300000000000001
aF13.800000000000001
aF11.699999999999999
aF13.6
aF15.300000000000001
aF14.4
aF13.1
asS'http---foroactivo.com'
p968
(lp969
F8.4169999999999998
aF8.6690000000000005
aF10.199999999999999
aF6.681
aF13.800000000000001
aF6.9809999999999999
aF8.4730000000000008
aF14.199999999999999
aF6.593
aF12
asS'http---awesomehp.com'
p970
(lp971
F14.4
aF11.300000000000001
aF15.199999999999999
aF15.199999999999999
aF14.5
aF14.9
aF14
aF13.699999999999999
aF13.6
aF14.699999999999999
asS'http---codecanyon.net'
p972
(lp973
F6.6719999999999997
aF14.6
aF9.7379999999999995
aF14.5
aF8.7669999999999995
aF6.992
aF8.218
aF12.199999999999999
aF9.3119999999999994
aF7.9039999999999999
asS'http---rojadirecta.me'
p974
(lp975
F7.5309999999999997
aF14.4
aF8.2010000000000005
aF10.1
aF6.9509999999999996
aF5.327
aF9.1229999999999993
aF6.6769999999999996
aF9.4049999999999994
aF6.976
asS'http---peliculaspepito.com'
p976
(lp977
F14.5
aF14.6
aF13.300000000000001
aF13.6
aF13.4
aF13.4
aF14.6
aF14.6
aF14.5
aF14
asS'http---wordpress.org'
p978
(lp979
F6.4909999999999997
aF5.3570000000000002
aF14
aF13.699999999999999
aF13
aF5.3949999999999996
aF5.3769999999999998
aF12.699999999999999
aF8.5850000000000009
aF6.5830000000000002
asS'http---forobeta.com'
p980
(lp981
F7.008
aF6.8490000000000002
aF5.2789999999999999
aF6.1230000000000002
aF5.6289999999999996
aF5.2969999999999997
aF9.3109999999999999
aF14.6
aF8.3040000000000003
aF6.6260000000000003
asS'http---tradedoubler.com'
p982
(lp983
F14.199999999999999
aF11.6
aF11.4
aF11.199999999999999
aF13.4
aF11
aF12.300000000000001
aF15.4
aF13.1
aF14.699999999999999
asS'http---skyscanner.es'
p984
(lp985
F9.0540000000000003
aF14.5
aF11.199999999999999
aF10.300000000000001
aF6.7430000000000003
aF7.992
aF8.6809999999999992
aF9.2530000000000001
aF10.9
aF8.6029999999999998
asS'http---levante-emv.com'
p986
(lp987
F14.300000000000001
aF14.800000000000001
aF14.199999999999999
aF13.800000000000001
aF14.4
aF13.699999999999999
aF14.5
aF14.699999999999999
aF14.4
aF13.699999999999999
asS'http---slideshare.net'
p988
(lp989
F15.6
aF15.1
aF12.800000000000001
aF14.4
aF13
aF16
aF13
aF12.9
aF9.702
aF13.300000000000001
asS'http---mail.ru'
p990
(lp991
F6.96
aF7.0670000000000002
aF6.7149999999999999
aF9.7650000000000006
aF8.3889999999999993
aF8.5109999999999992
aF12.800000000000001
aF3.028
aF6.4779999999999998
aF7.1829999999999998
asS'http---vogue.es'
p992
(lp993
F11.199999999999999
aF10.699999999999999
aF12.9
aF11.199999999999999
aF11.9
aF12.699999999999999
aF10.800000000000001
aF9.4130000000000003
aF16.100000000000001
aF15.6
asS'http---uoc.edu'
p994
(lp995
F9.0679999999999996
aF7.9450000000000003
aF10.1
aF7.9550000000000001
aF6.4989999999999997
aF5.851
aF9.5030000000000001
aF6.173
aF6.3310000000000004
aF6.8179999999999996
asS'http---dinahosting.com'
p996
(lp997
F8.2300000000000004
aF13.800000000000001
aF8.8049999999999997
aF12
aF7.2430000000000003
aF11.5
aF5.5730000000000004
aF12.699999999999999
aF8.3960000000000008
aF13.699999999999999
asS'http---reverso.net'
p998
(lp999
F9.0169999999999995
aF8.6950000000000003
aF6.4000000000000004
aF8.6539999999999999
aF13.5
aF9.2159999999999993
aF5.8159999999999998
aF5.5220000000000002
aF9.6259999999999994
aF9.3279999999999994
asS'http---elitetorrent.net'
p1000
(lp1001
F9.7170000000000005
aF7.1130000000000004
aF7.5599999999999996
aF6.5810000000000004
aF6.282
aF8.3239999999999998
aF5.2779999999999996
aF6.4950000000000001
aF5.2960000000000003
aF7.2699999999999996
asS'http---peliculasyonkis.com'
p1002
(lp1003
F13.9
aF13.5
aF11.4
aF14.5
aF13.800000000000001
aF14.5
aF13.6
aF14.1
aF14.4
aF13.800000000000001
asg1
(g2
tRp1004
g4
(lp1005
I326966
aI323773
aI327170
aI326887
aI326428
aI327341
aI322074
aI327078
aI327063
aI330806
asg6
(lp1006
I2319819
aI2330155
aI2313338
aI2275006
aI2265126
aI2316540
aI2326955
aI2334352
aI2311566
aI2319176
asg8
(lp1007
I1964453
aI1763549
aI1909730
aI1794583
aI1932691
aI1778861
aI1775139
aI1963547
aI1634154
aI1967629
asg10
(lp1008
I475618
aI599130
aI523162
aI480259
aI479225
aI515102
aI467137
aI466858
aI476098
aI503068
asg12
(lp1009
I1030979
aI963737
aI973937
aI1018209
aI991565
aI987532
aI1005851
aI987884
aI989844
aI999977
asg14
(lp1010
I681312
aI681884
aI701931
aI685751
aI682493
aI681227
aI677757
aI685927
aI678788
aI678692
asg16
(lp1011
I8148900
aI8237691
aI7105317
aI8088558
aI8470293
aI8225682
aI8143687
aI7989607
aI8082794
aI8595197
asg18
(lp1012
I1871026
aI2115114
aI1287920
aI1492209
aI1568749
aI1765672
aI1991552
aI1625528
aI1612076
aI1993363
asg20
(lp1013
I1349799
aI1344550
aI1334126
aI1265247
aI1338330
aI1334209
aI1337126
aI1289389
aI1321517
aI1320672
asg22
(lp1014
I879417
aI886159
aI886323
aI742533
aI883585
aI890669
aI894020
aI890205
aI883142
aI887335
asg24
(lp1015
I730637
aI794064
aI750172
aI757449
aI765920
aI537131
aI668423
aI537249
aI689437
aI798032
asg26
(lp1016
I1285947
aI1285943
aI1283066
aI1289968
aI1282107
aI1282530
aI1282697
aI1266644
aI1310336
aI1294093
asg28
(lp1017
I159206
aI158695
aI198705
aI222267
aI162909
aI158939
aI175291
aI159348
aI162878
aI195048
asg30
(lp1018
I1455605
aI1424715
aI1442687
aI1424817
aI1429574
aI1429790
aI1440345
aI1446088
aI1428540
aI1445313
asg32
(lp1019
I1916932
aI1793759
aI1782359
aI1762670
aI1602964
aI2107324
aI1867465
aI1814574
aI1554069
aI1866586
asg34
(lp1020
I2004871
aI2271517
aI1979379
aI1612373
aI1692082
aI2084581
aI1970794
aI2072054
aI1697412
aI1727798
asg36
(lp1021
I1258491
aI1255062
aI1313746
aI1264822
aI1266132
aI1261697
aI1261506
aI1261626
aI1260842
aI1264257
asg38
(lp1022
I449708
aI442339
aI432127
aI451590
aI443582
aI446856
aI442867
aI451101
aI454630
aI438888
asg40
(lp1023
I1199607
aI1205078
aI1207705
aI1199713
aI1075540
aI1197533
aI1165907
aI1222288
aI1198126
aI1124439
asg42
(lp1024
I324552
aI320634
aI324066
aI320718
aI320318
aI320267
aI324159
aI320795
aI320427
aI320734
asg44
(lp1025
I358235
aI359596
aI351022
aI355151
aI359633
aI310822
aI354912
aI367586
aI335032
aI339077
asg46
(lp1026
I911005
aI905093
aI900951
aI911934
aI905059
aI860432
aI914643
aI892707
aI905388
aI912098
asg48
(lp1027
I1857292
aI1883294
aI1885026
aI1884924
aI1927856
aI1895604
aI1889550
aI1615792
aI1896825
aI1884094
asg50
(lp1028
I503785
aI503792
aI503888
aI496584
aI503372
aI500087
aI503269
aI503643
aI500234
aI547416
asg52
(lp1029
I1796961
aI2049685
aI1431269
aI2047466
aI1391181
aI1894276
aI1630928
aI2016384
aI2100114
aI1472782
asg54
(lp1030
I311558
aI356564
aI348667
aI360548
aI348820
aI348822
aI344733
aI348548
aI364937
aI348560
asg56
(lp1031
I50676
aI50622
aI54158
aI50647
aI54379
aI50246
aI50672
aI54298
aI54191
aI50458
asg58
(lp1032
I610814
aI594184
aI625789
aI619270
aI613771
aI605607
aI635151
aI589950
aI602468
aI626012
asg60
(lp1033
I593027
aI585401
aI585650
aI585726
aI585785
aI521321
aI585906
aI599415
aI585211
aI585689
asg62
(lp1034
I1100349
aI1112367
aI1116233
aI1194591
aI1128154
aI1036017
aI1099287
aI1142337
aI1137341
aI1087375
asg64
(lp1035
I566998
aI575457
aI562746
aI572394
aI562648
aI607324
aI542001
aI555273
aI522511
aI558857
asg66
(lp1036
I862236
aI880815
aI860264
aI857710
aI818034
aI858244
aI873682
aI861405
aI869977
aI861318
asg68
(lp1037
I206627
aI202210
aI206661
aI210417
aI170422
aI202904
aI202792
aI206774
aI209578
aI206756
asg70
(lp1038
I2770244
aI1647287
aI1605719
aI2413869
aI2171703
aI1512929
aI2542926
aI2589713
aI1245980
aI1556235
asg72
(lp1039
I745421
aI761353
aI503794
aI764770
aI760852
aI765368
aI771692
aI760632
aI764379
aI636370
asg74
(lp1040
I868106
aI797479
aI867707
aI817326
aI775937
aI769179
aI772140
aI809042
aI780273
aI768961
asg76
(lp1041
I173124
aI168792
aI165506
aI173169
aI169505
aI166394
aI162434
aI173112
aI169532
aI166310
asg78
(lp1042
I1045810
aI1057270
aI1042612
aI1042642
aI1042608
aI1046125
aI1095122
aI1027375
aI1041957
aI1045969
asg80
(lp1043
I540027
aI526055
aI529385
aI525306
aI528959
aI537776
aI529221
aI552182
aI542709
aI539942
asg82
(lp1044
I2408837
aI4027122
aI2429971
aI2413371
aI2420147
aI2481194
aI3131242
aI4332561
aI4596110
aI4038949
asg84
(lp1045
I1962461
aI2483716
aI2728713
aI2564718
aI2598743
aI2700479
aI2747419
aI2746129
aI1841164
aI3104997
asg86
(lp1046
I74434
aI79177
aI74653
aI74530
aI70646
aI73924
aI77643
aI70915
aI81609
aI74610
asg88
(lp1047
I835138
aI1197265
aI937239
aI1227830
aI1009611
aI930628
aI967523
aI896942
aI1085312
aI1003788
asg90
(lp1048
I690194
aI775126
aI698268
aI689587
aI709686
aI693019
aI685398
aI18898
aI697792
aI674037
asg92
(lp1049
I710362
aI704578
aI691287
aI697836
aI698114
aI701212
aI699161
aI664775
aI704338
aI707900
asg94
(lp1050
I327273
aI326887
aI330943
aI326950
aI347051
aI54024
aI330171
aI330870
aI331200
aI326579
asg96
(lp1051
I363518
aI359749
aI384269
aI379633
aI366325
aI374111
aI370366
aI362708
aI359708
aI352086
asg98
(lp1052
I1075605
aI1076189
aI1084553
aI1076017
aI1072663
aI1068711
aI1076908
aI1069530
aI1207813
aI1069313
asg100
(lp1053
I1130743
aI1120403
aI1134839
aI968002
aI963850
aI1127329
aI1126329
aI1130462
aI449795
aI983049
asg102
(lp1054
I34339
aI34647
aI34706
aI34538
aI34682
aI34700
aI34612
aI34441
aI38042
aI37250
asg104
(lp1055
I2358081
aI2446370
aI2319580
aI2335483
aI2364422
aI2342893
aI2171985
aI2451218
aI2387470
aI2443315
asg106
(lp1056
I774841
aI792029
aI836301
aI814601
aI789825
aI673676
aI1060250
aI778789
aI912365
aI757499
asg108
(lp1057
I543686
aI540352
aI546695
aI550968
aI534826
aI559662
aI547125
aI527759
aI540057
aI540103
asg110
(lp1058
I389583
aI429926
aI420272
aI385806
aI389934
aI385255
aI401175
aI402208
aI402271
aI390170
asg112
(lp1059
I468599
aI468666
aI488029
aI468693
aI483966
aI475298
aI484262
aI492177
aI484643
aI483929
asg114
(lp1060
I568312
aI544501
aI537833
aI534212
aI540822
aI537846
aI538007
aI550723
aI541117
aI537239
asg116
(lp1061
I1055662
aI1022039
aI1156409
aI1140513
aI897414
aI854403
aI1013876
aI1012336
aI1009885
aI1137157
asg118
(lp1062
I358955
aI359634
aI376354
aI377955
aI378490
aI371015
aI386404
aI358817
aI359023
aI374055
asg120
(lp1063
I1185693
aI1173025
aI1083260
aI946305
aI1182705
aI1200101
aI1216452
aI1151833
aI1168274
aI1211924
asg122
(lp1064
I253077
aI249743
aI246098
aI176467
aI276414
aI272988
aI262392
aI248465
aI249605
aI251405
asg124
(lp1065
I1506303
aI1532729
aI1613336
aI1259094
aI1762672
aI1459986
aI1574625
aI1601522
aI1526848
aI1551800
asg126
(lp1066
I131076
aI130963
aI130585
aI131200
aI130725
aI130839
aI131119
aI130843
aI130837
aI130980
asg128
(lp1067
I629248
aI540786
aI553931
aI572872
aI643387
aI568705
aI527336
aI544147
aI629191
aI625213
asg130
(lp1068
I2058670
aI1786354
aI1969620
aI2180541
aI2219128
aI1978927
aI2026513
aI2085419
aI2226823
aI1990472
asg132
(lp1069
I601310
aI691644
aI628420
aI696836
aI637631
aI681137
aI688037
aI684405
aI681026
aI681236
asg134
(lp1070
I511779
aI515047
aI499670
aI497043
aI492496
aI497208
aI497084
aI503703
aI493243
aI510673
asg136
(lp1071
I1907036
aI1910528
aI1933993
aI1861311
aI1913995
aI1936548
aI1915327
aI1910480
aI1910003
aI1912145
asg138
(lp1072
I325393
aI878489
aI909233
aI879034
aI909282
aI866249
aI897403
aI866214
aI885354
aI887101
asg140
(lp1073
I800295
aI801007
aI764641
aI801039
aI796930
aI904206
aI781364
aI796824
aI817760
aI792064
asg142
(lp1074
I537886
aI489790
aI1123439
aI463947
aI542708
aI623773
aI480965
aI545677
aI484649
aI667277
asg144
(lp1075
I1129684
aI1201379
aI1265773
aI1218215
aI1158204
aI400849
aI1189516
aI1249309
aI1273713
aI1202355
asg146
(lp1076
I419418
aI412741
aI415875
aI411010
aI416051
aI415579
aI412728
aI426017
aI411805
aI419754
asg148
(lp1077
I1525606
aI1631889
aI1634812
aI1695885
aI1693079
aI1677362
aI1657247
aI1695025
aI1516172
aI1536246
asg150
(lp1078
I1383284
aI1422138
aI1382315
aI1487109
aI1351265
aI1394936
aI1347694
aI1355219
aI1393856
aI1360895
asg152
(lp1079
I280432
aI269517
aI277923
aI281315
aI281515
aI277876
aI252975
aI273447
aI277673
aI284451
asg154
(lp1080
I269896
aI269205
aI269325
aI269797
aI265938
aI269681
aI269861
aI280909
aI262129
aI269837
asg156
(lp1081
I521922
aI528092
aI501737
aI521836
aI521415
aI521716
aI508817
aI521938
aI521095
aI518039
asg158
(lp1082
I625638
aI638636
aI630524
aI669240
aI670007
aI582566
aI638455
aI650432
aI635228
aI638687
asg160
(lp1083
I1256726
aI1256233
aI1127326
aI1280918
aI1268034
aI1260240
aI1259841
aI1260082
aI1129629
aI1259931
asg162
(lp1084
I3070855
aI3080911
aI3086871
aI3061095
aI2267937
aI3092738
aI2122055
aI3095517
aI3080454
aI3091245
asg164
(lp1085
I385643
aI374760
aI353476
aI369500
aI375185
aI392492
aI416365
aI352901
aI387529
aI391816
asg166
(lp1086
I386119
aI401449
aI399048
aI398151
aI398852
aI405706
aI399011
aI402793
aI402102
aI387173
asg168
(lp1087
I1049246
aI952263
aI997868
aI1018317
aI920739
aI921923
aI909945
aI921638
aI929749
aI988869
asg170
(lp1088
I738918
aI735893
aI735793
aI739832
aI738619
aI744301
aI735642
aI730931
aI724160
aI728090
asg172
(lp1089
I1194914
aI1376399
aI1960736
aI2023743
aI2000563
aI2004198
aI2081518
aI2020592
aI1984295
aI2077403
asg174
(lp1090
I374812
aI386971
aI386825
aI390223
aI379056
aI377390
aI383493
aI383041
aI379318
aI393268
asg176
(lp1091
I34736
aI34682
aI34306
aI34683
aI34718
aI34724
aI34370
aI44648
aI34696
aI34769
asg178
(lp1092
I1209677
aI1183063
aI1056398
aI1079421
aI1118221
aI1180403
aI502994
aI1232784
aI1220880
aI1254530
asg180
(lp1093
I564859
aI603549
aI591938
aI561550
aI564353
aI565929
aI557417
aI592410
aI603407
aI598024
asg182
(lp1094
I197615
aI198087
aI200961
aI201413
aI197754
aI197241
aI201004
aI200975
aI197525
aI197546
asg184
(lp1095
I34280
aI34609
aI34510
aI34216
aI34691
aI34743
aI34600
aI34664
aI38735
aI38407
asg186
(lp1096
I649918
aI631059
aI634262
aI252580
aI584627
aI691306
aI602365
aI654668
aI638412
aI646370
asg188
(lp1097
I606221
aI585401
aI630199
aI601935
aI625647
aI609847
aI612973
aI658120
aI573121
aI619906
asg190
(lp1098
I685571
aI617930
aI637703
aI686191
aI686014
aI708724
aI702166
aI705898
aI709190
aI688396
asg192
(lp1099
I557465
aI564468
aI557696
aI557674
aI561609
aI557336
aI557716
aI572107
aI564919
aI568740
asg194
(lp1100
I327691
aI324043
aI323921
aI338328
aI323890
aI323603
aI323331
aI323313
aI361506
aI323863
asg196
(lp1101
I159178
aI161745
aI162785
aI162448
aI158715
aI157849
aI161624
aI162657
aI166105
aI162736
asg198
(lp1102
I138783
aI142491
aI146977
aI138427
aI135071
aI138790
aI135078
aI141984
aI149850
aI143036
asg200
(lp1103
I544726
aI535099
aI553950
aI533735
aI539801
aI557786
aI530939
aI535277
aI534828
aI575151
asg202
(lp1104
I258969
aI281931
aI255051
aI255560
aI255553
aI259428
aI281779
aI219600
aI255925
aI255022
asg204
(lp1105
I435229
aI382232
aI265418
aI358647
aI268981
aI272597
aI272323
aI271811
aI272593
aI232874
asg206
(lp1106
I1787727
aI1759803
aI1723956
aI1760501
aI1755363
aI1822975
aI1738994
aI1774113
aI1773217
aI1798688
asg208
(lp1107
I976178
aI970868
aI975531
aI976061
aI975533
aI956137
aI918868
aI980467
aI976135
aI978927
asg210
(lp1108
I376154
aI416856
aI369165
aI376499
aI370018
aI377375
aI261985
aI376356
aI376568
aI366821
asg212
(lp1109
I261906
aI258204
aI257479
aI280404
aI265536
aI260748
aI261300
aI261853
aI261865
aI261925
asg214
(lp1110
I877233
aI736227
aI694200
aI718165
aI752528
aI777969
aI721534
aI696769
aI795901
aI811644
asg216
(lp1111
I226858
aI223206
aI222490
aI226563
aI218985
aI222510
aI223138
aI222772
aI238938
aI246949
asg218
(lp1112
I438277
aI462091
aI398594
aI442604
aI488633
aI430975
aI488902
aI469612
aI434819
aI430637
asg220
(lp1113
I798477
aI806864
aI799242
aI798436
aI810468
aI808753
aI795695
aI798670
aI795516
aI795615
asg222
(lp1114
I2863027
aI2772044
aI2794883
aI2808840
aI2856966
aI2844709
aI2822179
aI2847434
aI2873947
aI2859733
asg224
(lp1115
I2759618
aI2762081
aI2756402
aI2720673
aI2808533
aI2770476
aI2734115
aI2748516
aI2727220
aI2876064
asg226
(lp1116
I807843
aI726864
aI764919
aI777718
aI800098
aI781070
aI758395
aI785892
aI769963
aI769126
asg228
(lp1117
I692918
aI697650
aI571360
aI702019
aI693301
aI696928
aI693256
aI725293
aI693647
aI693417
asg230
(lp1118
I186829
aI18944
aI30911
aI193265
aI188911
aI161534
aI198474
aI190226
aI165578
aI185968
asg232
(lp1119
I1088939
aI1075659
aI1090949
aI1084762
aI1051619
aI1067414
aI1066999
aI1092933
aI1075848
aI1075540
asg234
(lp1120
I1637625
aI1716954
aI1713919
aI1704502
aI1704891
aI1718724
aI1651139
aI1537485
aI1724447
aI1709978
asg236
(lp1121
I1419035
aI1964772
aI1938558
aI1938670
aI1890493
aI1998329
aI2046540
aI2018652
aI1926945
aI2059551
asg238
(lp1122
I509829
aI502597
aI508924
aI524504
aI494025
aI505851
aI505786
aI509821
aI502146
aI516647
asg240
(lp1123
I1477223
aI1495671
aI1191110
aI1401372
aI1604202
aI1652071
aI1393611
aI1532775
aI1551101
aI1603329
asg242
(lp1124
I15231
aI15078
aI15076
aI15247
aI15224
aI15165
aI15220
aI15224
aI15226
aI15193
asg244
(lp1125
I879861
aI939445
aI860678
aI897328
aI896495
aI902765
aI896566
aI893676
aI900284
aI897656
asg246
(lp1126
I1155593
aI702440
aI801976
aI763819
aI1160426
aI900839
aI817811
aI962763
aI1192872
aI801052
asg248
(lp1127
I555475
aI561624
aI571112
aI560286
aI587647
aI571662
aI562520
aI563466
aI551001
aI555140
asg250
(lp1128
I491211
aI490817
aI501596
aI509831
aI1096484
aI493747
aI490702
aI490062
aI485165
aI496641
asg252
(lp1129
I655224
aI655117
aI650135
aI651440
aI651875
aI654866
aI658419
aI651856
aI658210
aI651488
asg254
(lp1130
I338133
aI334785
aI342151
aI334977
aI294372
aI334960
aI334536
aI335025
aI342434
aI350817
asg256
(lp1131
I811605
aI808237
aI811458
aI812099
aI804899
aI796146
aI831526
aI808500
aI812260
aI812451
asg258
(lp1132
I34472
aI42598
aI34726
aI34483
aI34705
aI34752
aI34677
aI42495
aI41661
aI34627
asg260
(lp1133
I2559050
aI2454699
aI2450820
aI2517546
aI2566525
aI2548835
aI2436635
aI2370694
aI2714816
aI2498421
asg262
(lp1134
I1181332
aI1177531
aI1161111
aI1157175
aI1152038
aI1190707
aI1130636
aI651723
aI1161938
aI1150279
asg264
(lp1135
I624917
aI627926
aI628543
aI627992
aI628085
aI624233
aI620750
aI647549
aI624432
aI628332
asg266
(lp1136
I2217152
aI2024553
aI2216844
aI2170314
aI2205560
aI2141374
aI2024603
aI2071490
aI2043824
aI2060823
asg268
(lp1137
I636062
aI672148
aI698587
aI690992
aI686790
aI680775
aI682887
aI699584
aI684407
aI687749
asg270
(lp1138
I19041
aI18945
aI18746
aI19046
aI18877
aI19015
aI18835
aI18766
aI18997
aI14031
asg272
(lp1139
I681832
aI688303
aI684704
aI686005
aI689662
aI685990
aI685036
aI656705
aI647781
aI676844
asg274
(lp1140
I1679353
aI1613739
aI1637586
aI1667457
aI1704300
aI1624567
aI1709464
aI1672507
aI1664117
aI1618240
asg276
(lp1141
I22886
aI18576
aI19334
aI19166
aI19338
aI23080
aI19397
aI19129
aI19271
aI19347
asg278
(lp1142
I330306
aI309848
aI333827
aI329847
aI349147
aI333703
aI345815
aI351427
aI349040
aI333473
asg280
(lp1143
I1900735
aI1974601
aI1785333
aI1978823
aI1937908
aI1826732
aI1960633
aI1578588
aI1878302
aI1941881
asg282
(lp1144
I34687
aI34565
aI34759
aI34665
aI34495
aI34692
aI34716
aI34749
aI34748
aI34587
asg284
(lp1145
I698657
aI605620
aI601856
aI701704
aI693176
aI609810
aI602368
aI598829
aI689812
aI696868
asg286
(lp1146
I885218
aI764091
aI882084
aI884831
aI881986
aI817419
aI878576
aI744303
aI892904
aI885240
asg288
(lp1147
I1210006
aI1202954
aI1149657
aI1174448
aI1228812
aI1162510
aI1206326
aI1210113
aI1212608
aI1089555
asg290
(lp1148
I46726
aI426934
aI434460
aI438482
aI431034
aI434462
aI391241
aI430475
aI434024
aI431614
asg292
(lp1149
I335468
aI353237
aI354110
aI359079
aI359332
aI611434
aI337633
aI393528
aI334589
aI314895
asg294
(lp1150
I338669
aI403422
aI398821
aI411561
aI415021
aI395985
aI399208
aI404285
aI400253
aI391990
asg296
(lp1151
I314989
aI322304
aI325423
aI307434
aI314601
aI307314
aI310390
aI786148
aI310709
aI326638
asg298
(lp1152
I422344
aI635148
aI463176
aI369274
aI646631
aI408502
aI615244
aI642201
aI436775
aI380937
asg300
(lp1153
I74503
aI74924
aI71017
aI71003
aI74470
aI71061
aI70843
aI74856
aI74526
aI70839
asg302
(lp1154
I794228
aI760891
aI748125
aI666768
aI837960
aI853897
aI861817
aI775599
aI925886
aI666984
asg304
(lp1155
I902026
aI812398
aI901192
aI894861
aI911949
aI901666
aI901919
aI911668
aI872817
aI905653
asg306
(lp1156
I2463671
aI2221370
aI2430381
aI2438362
aI2522575
aI2507412
aI2503628
aI2447000
aI2829931
aI2331789
asg308
(lp1157
I149206
aI145786
aI148867
aI145766
aI145678
aI148589
aI149271
aI149230
aI144061
aI145115
asg310
(lp1158
I1049971
aI1043775
aI1047567
aI1052607
aI1047372
aI1051630
aI1050739
aI1062268
aI1031189
aI1019784
asg312
(lp1159
I672966
aI659193
aI659228
aI10597
aI667264
aI663726
aI660457
aI656710
aI660259
aI660536
asg314
(lp1160
I716265
aI722256
aI663504
aI729117
aI717085
aI740213
aI723851
aI727368
aI719379
aI720056
asg316
(lp1161
I510160
aI506181
aI514434
aI534770
aI510502
aI509885
aI521834
aI509967
aI485886
aI510125
asg318
(lp1162
I2735304
aI3074688
aI2898156
aI3112406
aI2946916
aI3054916
aI3072936
aI3033761
aI3001369
aI2957466
asg320
(lp1163
I124760
aI511182
aI313502
aI478983
aI494870
aI510626
aI498579
aI494761
aI497373
aI81173
asg322
(lp1164
I911575
aI1123572
aI825878
aI1019035
aI1655856
aI1784787
aI953362
aI1108413
aI703032
aI931810
asg324
(lp1165
I14778
aI15188
aI14924
aI15326
aI14940
aI15046
aI15211
aI14576
aI15099
aI22255
asg326
(lp1166
I859485
aI861995
aI861229
aI862554
aI862611
aI858406
aI487069
aI855653
aI858656
aI866036
asg328
(lp1167
I302617
aI295454
aI295660
aI295662
aI295608
aI295439
aI341260
aI295828
aI295749
aI299002
asg330
(lp1168
I15303
aI15206
aI15160
aI18623
aI15067
aI15116
aI15284
aI15303
aI15315
aI15061
asg332
(lp1169
I678382
aI779718
aI788436
aI712117
aI655929
aI832172
aI719043
aI696237
aI720317
aI893446
asg334
(lp1170
I1041033
aI1169275
aI771449
aI1093483
aI863257
aI775170
aI953114
aI1048940
aI7318
aI1041091
asg336
(lp1171
I978476
aI978358
aI1013617
aI977707
aI970696
aI975084
aI978438
aI981465
aI973602
aI986255
asg338
(lp1172
I243010
aI239628
aI250702
aI241871
aI242792
aI242143
aI243098
aI238963
aI235053
aI247129
asg340
(lp1173
I1571487
aI1639496
aI1439761
aI1722902
aI1566300
aI1695434
aI1543602
aI1538179
aI1704033
aI1575446
asg342
(lp1174
I1443169
aI1452136
aI1466928
aI1444715
aI1431592
aI1439741
aI1425246
aI1445922
aI1436619
aI1439740
asg344
(lp1175
I249509
aI276240
aI250063
aI253775
aI253108
aI239495
aI259232
aI253957
aI276827
aI253152
asg346
(lp1176
I6982044
aI9624536
aI8066742
aI6966021
aI7795934
aI6904925
aI7435365
aI7862250
aI7603180
aI7137295
asg348
(lp1177
I454364
aI585544
aI571564
aI586589
aI457234
aI457045
aI581519
aI572349
aI458783
aI582042
asg350
(lp1178
I2643236
aI2471337
aI2369751
aI2621914
aI2765025
aI2780612
aI2776389
aI2506122
aI2686454
aI2775684
asg352
(lp1179
I2613603
aI2839271
aI2888185
aI2696280
aI2757877
aI2750448
aI2513033
aI2603177
aI2723010
aI2649649
asg354
(lp1180
I286850
aI283637
aI283644
aI270943
aI291405
aI287101
aI283773
aI294987
aI286977
aI290053
asg356
(lp1181
I271035
aI275384
aI290839
aI267277
aI271135
aI270428
aI267268
aI270976
aI271163
aI271087
asg358
(lp1182
I542105
aI529793
aI540825
aI513560
aI522762
aI561585
aI521830
aI533504
aI541855
aI541900
asg360
(lp1183
I261824
aI261784
aI300772
aI283525
aI267682
aI261267
aI341639
aI288863
aI271938
aI264976
asg362
(lp1184
I94297
aI86287
aI86353
aI82883
aI86540
aI86212
aI82911
aI58482
aI86424
aI86409
asg364
(lp1185
I2058393
aI767204
aI2227547
aI2118492
aI1930718
aI1894509
aI2109030
aI2172050
aI2116689
aI1837248
asg366
(lp1186
I2592570
aI2639905
aI2537946
aI2576487
aI2448488
aI2471700
aI2584251
aI2599943
aI2454415
aI2513667
asg368
(lp1187
I706799
aI703389
aI755029
aI703048
aI693156
aI696574
aI692904
aI703108
aI693331
aI705928
asg370
(lp1188
I966789
aI539240
aI976988
aI970041
aI962915
aI961696
aI970475
aI1026292
aI954170
aI967051
asg372
(lp1189
I455854
aI460833
aI460866
aI464400
aI456697
aI457279
aI457174
aI460507
aI484477
aI457383
asg374
(lp1190
I54535
aI362459
aI359978
aI363922
aI367291
aI363668
aI359750
aI370345
aI360313
aI362389
asg376
(lp1191
I127032
aI122784
aI130746
aI122938
aI122945
aI122296
aI119251
aI125645
aI122965
aI122353
asg378
(lp1192
I34744
aI34624
aI42333
aI34515
aI34652
aI34840
aI34685
aI34639
aI45977
aI34640
asg380
(lp1193
I330144
aI1144688
aI363366
aI426551
aI402308
aI363443
aI669678
aI327228
aI605579
aI342971
asg382
(lp1194
I2339153
aI2248905
aI2220461
aI2340354
aI2111956
aI2399750
aI2322955
aI2416201
aI2364611
aI2320668
asg384
(lp1195
I286578
aI1164201
aI1126731
aI1173856
aI1156003
aI1171304
aI1190067
aI1186470
aI1171301
aI1199253
asg386
(lp1196
I1134428
aI1191771
aI970461
aI1180621
aI1108496
aI1166321
aI2076754
aI1618874
aI1103749
aI1156954
asg388
(lp1197
I174596
aI171152
aI182535
aI166395
aI171036
aI178105
aI170649
aI170893
aI174729
aI170584
asg390
(lp1198
I86119
aI100786
aI85213
aI93402
aI92971
aI96346
aI93101
aI93926
aI96540
aI85323
asg392
(lp1199
I1477512
aI1630535
aI1533014
aI1536521
aI1647361
aI1632868
aI1316179
aI1674111
aI1645453
aI1623037
asg394
(lp1200
I489313
aI469707
aI477055
aI470674
aI470294
aI461620
aI485869
aI487142
aI482540
aI479186
asg396
(lp1201
I605550
aI608850
aI601700
aI614773
aI593990
aI605719
aI635003
aI602187
aI614679
aI602209
asg398
(lp1202
I34760
aI34684
aI34567
aI34743
aI33725
aI34399
aI34511
aI34442
aI33467
aI33923
asg400
(lp1203
I5350897
aI4349412
aI6958466
aI4540480
aI4671689
aI4819198
aI3901786
aI4662687
aI4711623
aI4465530
asg402
(lp1204
I553554
aI590508
aI617479
aI670560
aI655000
aI557523
aI544793
aI675498
aI557071
aI637580
asg404
(lp1205
I1917477
aI3015755
aI3562479
aI3463726
aI2791974
aI3512265
aI2734398
aI3634299
aI2199148
aI3257385
asg406
(lp1206
I761194
aI727639
aI748579
aI751423
aI765063
aI732929
aI726984
aI767680
aI761286
aI758501
asg408
(lp1207
I295884
aI299342
aI295558
aI302524
aI299175
aI295794
aI310321
aI299137
aI299299
aI310580
asg410
(lp1208
I90398
aI92870
aI90512
aI90504
aI90492
aI86330
aI90301
aI90147
aI90346
aI89683
asg412
(lp1209
I90172
aI90628
aI94200
aI94112
aI370816
aI90521
aI90668
aI89154
aI90656
aI90583
asg414
(lp1210
I66166
aI365801
aI359030
aI622188
aI616610
aI616781
aI30347
aI46095
aI624263
aI342576
asg416
(lp1211
I34983
aI38597
aI30193
aI838716
aI26719
aI29361
aI38225
aI42340
aI45780
aI25345
asg418
(lp1212
I538883
aI531980
aI528735
aI46341
aI528710
aI524245
aI543996
aI524848
aI531035
aI555480
asg420
(lp1213
I34744
aI34888
aI38681
aI34758
aI34754
aI34664
aI33645
aI34659
aI38175
aI38182
asg422
(lp1214
I600002
aI603526
aI592818
aI596161
aI589408
aI603780
aI584255
aI611426
aI606528
aI519241
asg424
(lp1215
I1145263
aI1183908
aI1116967
aI1108799
aI1100954
aI1124280
aI1119602
aI1101606
aI1135336
aI902689
asg426
(lp1216
I2181283
aI2381655
aI2061190
aI2682955
aI2178105
aI2056981
aI2017629
aI1224213
aI2065499
aI2322262
asg428
(lp1217
I41808
aI46514
aI46513
aI46542
aI42835
aI46900
aI42981
aI42984
aI46553
aI41430
asg430
(lp1218
I459254
aI456181
aI458750
aI459543
aI440042
aI458897
aI428353
aI455920
aI475505
aI459247
asg432
(lp1219
I262629
aI262198
aI269483
aI261936
aI262001
aI265767
aI262044
aI262043
aI258660
aI266110
asg434
(lp1220
I1585551
aI1655415
aI1729708
aI1585970
aI1673617
aI1583644
aI1582680
aI1617171
aI1651860
aI1585459
asg436
(lp1221
I3847861
aI4150554
aI5090518
aI4540447
aI4150488
aI3993338
aI4713366
aI4498823
aI4078068
aI1778597
asg438
(lp1222
I2292733
aI2354459
aI2043147
aI2214678
aI2179935
aI2470881
aI1941438
aI2313182
aI2145213
aI2194237
asg440
(lp1223
I158461
aI158581
aI158714
aI158511
aI158739
aI158761
aI170492
aI158969
aI155120
aI158711
asg442
(lp1224
I61848
aI185324
aI193873
aI182870
aI200689
aI186102
aI133761
aI192441
aI182617
aI97306
asg444
(lp1225
I15234
aI19018
aI19067
aI15294
aI19282
aI19285
aI13914
aI13914
aI19056
aI19060
asg446
(lp1226
I168261
aI171553
aI171565
aI171847
aI171541
aI179557
aI179358
aI175260
aI171837
aI171676
asg448
(lp1227
I1062437
aI1066507
aI1043979
aI1066187
aI1047632
aI1063439
aI1040012
aI1058814
aI1059209
aI1044089
asg450
(lp1228
I257617
aI259682
aI260915
aI266368
aI248915
aI275628
aI251946
aI278572
aI256278
aI258474
asg452
(lp1229
I177379
aI190550
aI177802
aI173547
aI198638
aI174015
aI189286
aI182098
aI180597
aI182223
asg454
(lp1230
I114889
aI114133
aI118584
aI118588
aI114350
aI114188
aI118388
aI115047
aI114804
aI114276
asg456
(lp1231
I2419985
aI1290074
aI2247542
aI1484145
aI2068242
aI1971431
aI2083869
aI2067583
aI2075108
aI2178784
asg458
(lp1232
I1236666
aI1236655
aI1191192
aI1231259
aI1244011
aI1113950
aI1238853
aI1195561
aI1224154
aI1108079
asg460
(lp1233
I190439
aI189807
aI154023
aI186455
aI193822
aI186261
aI190274
aI193726
aI182571
aI193308
asg462
(lp1234
I1106478
aI1006933
aI851156
aI962352
aI871735
aI743106
aI1002438
aI1085989
aI899422
aI978020
asg464
(lp1235
I15241
aI15124
aI18757
aI15332
aI15184
aI15121
aI15216
aI15166
aI15184
aI23216
asg466
(lp1236
I1090862
aI1131330
aI1134965
aI1128496
aI989756
aI1131359
aI1128331
aI1134981
aI1119950
aI1154039
asg468
(lp1237
I38284
aI34595
aI34700
aI34637
aI34327
aI34580
aI38238
aI19060
aI34669
aI34621
asg470
(lp1238
I4529046
aI5173464
aI5014222
aI4986583
aI5087320
aI4486853
aI4227411
aI4503763
aI5157840
aI5094849
asg472
(lp1239
I453190
aI453185
aI453330
aI456602
aI453181
aI472710
aI468359
aI453515
aI460313
aI457662
asg474
(lp1240
I823947
aI831122
aI824289
aI827925
aI830776
aI824335
aI824021
aI843694
aI849648
aI828001
asg476
(lp1241
I260774
aI263185
aI260976
aI283656
aI252616
aI261784
aI249565
aI264728
aI257603
aI261545
asg478
(lp1242
I358401
aI338662
aI362071
aI349604
aI357825
aI319154
aI358536
aI357376
aI365732
aI357711
asg480
(lp1243
I536874
aI525147
aI524705
aI524431
aI525310
aI525076
aI524579
aI525177
aI528632
aI525736
asg482
(lp1244
I164896
aI164886
aI164966
aI167811
aI164613
aI167844
aI164853
aI164837
aI164938
aI164924
asg484
(lp1245
I373079
aI384103
aI405418
aI407479
aI389584
aI405428
aI389565
aI405453
aI392769
aI389704
asg486
(lp1246
I106433
aI100649
aI109959
aI102414
aI104938
aI106315
aI177915
aI81698
aI123507
aI174034
asg488
(lp1247
I320510
aI320769
aI320888
aI320765
aI320783
aI320496
aI324257
aI323663
aI320709
aI320902
asg490
(lp1248
I705353
aI717109
aI706222
aI713179
aI708444
aI717058
aI724039
aI708914
aI717448
aI677730
asg492
(lp1249
I683474
aI745865
aI739373
aI746518
aI719432
aI742834
aI750840
aI742786
aI796379
aI739208
asg494
(lp1250
I153840
aI151210
aI15236
aI151386
aI158272
aI154807
aI150657
aI151434
aI151125
aI151429
asg496
(lp1251
I265155
aI268057
aI261638
aI272673
aI269208
aI275943
aI268358
aI284846
aI264077
aI268630
asg498
(lp1252
I2028784
aI2276734
aI1438052
aI2456568
aI2315959
aI2134844
aI2472493
aI2408738
aI2185638
aI1848919
asg500
(lp1253
I114781
aI114702
aI114602
aI114708
aI114755
aI114446
aI114467
aI114931
aI114683
aI110596
asg502
(lp1254
I494960
aI487245
aI496613
aI498995
aI496313
aI491840
aI491444
aI495460
aI499706
aI496271
asg504
(lp1255
I150047
aI150287
aI150338
aI153875
aI149724
aI150303
aI158151
aI158178
aI150323
aI154012
asg506
(lp1256
I746525
aI747237
aI742837
aI742140
aI742550
aI742758
aI743146
aI742717
aI742948
aI753057
asg508
(lp1257
I3484581
aI3424045
aI3295015
aI3397530
aI3398115
aI3496420
aI3445866
aI3456210
aI3447874
aI3469023
asg510
(lp1258
I1460980
aI1461418
aI1442088
aI1449236
aI1459830
aI1452133
aI1433745
aI1441632
aI1434993
aI1442264
asg512
(lp1259
I4756088
aI2385155
aI2425493
aI2611710
aI2358824
aI4784821
aI2809231
aI2494003
aI4379712
aI2589410
asg514
(lp1260
I241616
aI262340
aI230852
aI246073
aI753444
aI242228
aI257666
aI213882
aI258819
aI230809
asg516
(lp1261
I122659
aI122769
aI126222
aI123083
aI126832
aI122678
aI158633
aI122916
aI122173
aI123128
asg518
(lp1262
I486655
aI461742
aI466387
aI442920
aI425316
aI458221
aI485633
aI450095
aI550523
aI430183
asg520
(lp1263
I271611
aI279060
aI275164
aI289897
aI278455
aI275078
aI294533
aI274827
aI271077
aI271080
asg522
(lp1264
I376369
aI740912
aI850782
aI848794
aI881173
aI345929
aI906093
aI827440
aI376561
aI509162
asg524
(lp1265
I2075033
aI2671065
aI2475441
aI2671501
aI2560712
aI2641801
aI2592744
aI2430627
aI2404415
aI2435323
asg526
(lp1266
I903932
aI909955
aI904350
aI907036
aI914637
aI904673
aI727943
aI904378
aI884584
aI927994
asg528
(lp1267
I1437728
aI1497729
aI1481068
aI1469606
aI1399468
aI1473975
aI1388966
aI1381862
aI1455091
aI1422034
asg530
(lp1268
I34816
aI34755
aI34532
aI34665
aI34608
aI34635
aI34655
aI34688
aI22576
aI34505
asg532
(lp1269
I891831
aI861407
aI983003
aI929903
aI978489
aI893110
aI869694
aI942298
aI829097
aI848775
asg534
(lp1270
I514058
aI521833
aI520895
aI517808
aI521670
aI521040
aI520267
aI521829
aI517894
aI529358
asg536
(lp1271
I1287085
aI928829
aI1342756
aI1268315
aI1316980
aI1291937
aI1083799
aI1288446
aI1304673
aI1326468
asg538
(lp1272
I628155
aI627967
aI631447
aI631918
aI628473
aI631684
aI628544
aI628267
aI628166
aI627803
asg540
(lp1273
I862218
aI839707
aI850583
aI843861
aI845923
aI843704
aI7927
aI839924
aI912149
aI847174
asg542
(lp1274
I2195313
aI2183484
aI2198881
aI2174928
aI2191833
aI2127995
aI2172802
aI2209565
aI2175633
aI1842200
asg544
(lp1275
I634701
aI638676
aI645158
aI637765
aI677282
aI656069
aI649737
aI665682
aI661259
aI644558
asg546
(lp1276
I414030
aI441867
aI435132
aI442241
aI441661
aI440845
aI441554
aI435024
aI445667
aI441715
asg548
(lp1277
I38256
aI34750
aI34806
aI34703
aI34690
aI34680
aI34797
aI38358
aI34678
aI34673
asg550
(lp1278
I892286
aI902240
aI920825
aI892807
aI898160
aI902746
aI913918
aI886294
aI912253
aI889862
asg552
(lp1279
I335457
aI341882
aI339114
aI335726
aI341649
aI335503
aI339007
aI339095
aI339479
aI338398
asg554
(lp1280
I407431
aI418517
aI443614
aI409653
aI410948
aI407607
aI407664
aI407391
aI407614
aI407637
asg556
(lp1281
I884589
aI912994
aI912383
aI912528
aI908533
aI913051
aI912607
aI924718
aI912677
aI912865
asg558
(lp1282
I952658
aI959111
aI953084
aI965166
aI949561
aI981682
aI953153
aI966208
aI941277
aI952698
asg560
(lp1283
I275992
aI276004
aI272335
aI276026
aI275977
aI279176
aI275884
aI275745
aI287970
aI276078
asg562
(lp1284
I130545
aI126772
aI130087
aI130200
aI133513
aI130344
aI130361
aI126809
aI130060
aI130453
asg564
(lp1285
I1042441
aI1154612
aI1142318
aI1142191
aI1152122
aI1142689
aI1137602
aI1134654
aI1121462
aI1142316
asg566
(lp1286
I481019
aI452777
aI478175
aI480052
aI481487
aI473390
aI474486
aI471130
aI482387
aI478236
asg568
(lp1287
I408970
aI406608
aI406622
aI402578
aI402019
aI409094
aI401823
aI417462
aI394837
aI413441
asg570
(lp1288
I34616
aI38197
aI34684
aI34691
aI33846
aI38639
aI38163
aI34445
aI34570
aI34680
asg572
(lp1289
I2101325
aI18999
aI1724676
aI2144070
aI2136354
aI1908888
aI1690536
aI1799890
aI2112289
aI1874004
asg574
(lp1290
I12659736
aI12707037
aI10492092
aI9807882
aI10924768
aI12113418
aI10782929
aI13268079
aI11632386
aI7114297
asg576
(lp1291
I1342814
aI1424012
aI1454908
aI1438545
aI1427859
aI1439791
aI1451557
aI1447846
aI1434100
aI1424019
asg578
(lp1292
I615144
aI604232
aI611087
aI604384
aI611510
aI604743
aI603892
aI635443
aI604123
aI608337
asg580
(lp1293
I1552077
aI1548621
aI1267772
aI1536360
aI1571538
aI1567401
aI1532455
aI884681
aI1624500
aI1444449
asg582
(lp1294
I2836509
aI2795461
aI2661986
aI2873946
aI2473475
aI2861070
aI3748459
aI2792738
aI2685576
aI2734659
asg584
(lp1295
I894585
aI898937
aI894849
aI881396
aI895331
aI890824
aI893510
aI914796
aI894727
aI886735
asg586
(lp1296
I1220336
aI21647
aI816610
aI509348
aI501369
aI513339
aI490468
aI804485
aI829130
aI1320800
asg588
(lp1297
I882590
aI878763
aI810181
aI885985
aI878891
aI870701
aI2187063
aI872569
aI878774
aI878741
asg590
(lp1298
I392355
aI395654
aI399648
aI392424
aI392291
aI380095
aI395976
aI392373
aI387905
aI392593
asg592
(lp1299
I1333367
aI1308302
aI1315902
aI1259470
aI1308199
aI1317312
aI1335751
aI1308430
aI569704
aI1301287
asg594
(lp1300
I2221835
aI2508527
aI2222614
aI2282450
aI2279223
aI2224264
aI3153386
aI2309983
aI2282685
aI2362881
asg596
(lp1301
I381674
aI341791
aI377868
aI378513
aI389669
aI385639
aI377172
aI378515
aI378006
aI377636
asg598
(lp1302
I351142
aI586114
aI617511
aI355788
aI339194
aI347671
aI259120
aI258391
aI741607
aI307065
asg600
(lp1303
I506101
aI546877
aI537851
aI533889
aI569343
aI578965
aI563007
aI535605
aI541244
aI562671
asg602
(lp1304
I190896
aI192971
aI187033
aI190207
aI190346
aI202519
aI190464
aI198433
aI186695
aI197627
asg604
(lp1305
I267754
aI266804
aI266033
aI263012
aI270098
aI266467
aI261735
aI262651
aI262486
aI262721
asg606
(lp1306
I533350
aI523019
aI532950
aI513826
aI983463
aI531965
aI523475
aI523123
aI522804
aI528767
asg608
(lp1307
I1501673
aI1468439
aI1492121
aI1423930
aI1361045
aI1547136
aI1373176
aI1703961
aI1447630
aI1716133
asg610
(lp1308
I687389
aI671087
aI683721
aI684230
aI683121
aI656277
aI718626
aI687288
aI680173
aI639592
asg612
(lp1309
I19107
aI19067
aI35758
aI19152
aI19163
aI19227
aI18932
aI19150
aI18932
aI19124
asg614
(lp1310
I353440
aI302203
aI250304
aI305253
aI301887
aI305231
aI308778
aI260924
aI301053
aI308971
asg616
(lp1311
I219420
aI225989
aI219404
aI227270
aI222563
aI219425
aI254940
aI219295
aI219358
aI218803
asg618
(lp1312
I827513
aI815618
aI812228
aI804541
aI815306
aI812245
aI824763
aI811763
aI839955
aI893219
asg620
(lp1313
I784569
aI807192
aI812036
aI815312
aI816655
aI813163
aI820515
aI821648
aI804116
aI724964
asg622
(lp1314
I580036
aI590492
aI587068
aI520209
aI572982
aI584096
aI576766
aI568094
aI580002
aI579988
asg624
(lp1315
I159470
aI145708
aI153386
aI160605
aI149040
aI34238
aI145630
aI156751
aI149243
aI149057
asg626
(lp1316
I562668
aI566945
aI555676
aI562867
aI567646
aI559998
aI562402
aI556340
aI559476
aI559466
asg628
(lp1317
I2134091
aI1224326
aI1236608
aI2439180
aI1028269
aI1191963
aI1091222
aI1076696
aI1177377
aI1309547
asg630
(lp1318
I234996
aI235140
aI235100
aI252354
aI234640
aI234968
aI234995
aI234984
aI242859
aI235160
asg632
(lp1319
I2042151
aI2021617
aI1896537
aI2190278
aI2030678
aI1881914
aI1830168
aI1927482
aI2011104
aI1957681
asg634
(lp1320
I874560
aI902912
aI887113
aI867152
aI854419
aI895635
aI966037
aI887094
aI895604
aI851829
asg636
(lp1321
I302239
aI251304
aI338216
aI327325
aI333959
aI282133
aI327295
aI334712
aI322487
aI330299
asg638
(lp1322
I3802117
aI3724871
aI3710809
aI3785703
aI3774067
aI3817022
aI3742177
aI3859447
aI3799604
aI3815903
asg640
(lp1323
I548668
aI548571
aI548061
aI545236
aI549039
aI545408
aI548655
aI552277
aI556845
aI552339
asg642
(lp1324
I1061789
aI922108
aI1030550
aI1035035
aI1075454
aI1039275
aI989963
aI1031500
aI1058608
aI1039603
asg644
(lp1325
I135114
aI127165
aI127135
aI126737
aI126660
aI168748
aI105515
aI130708
aI127108
aI130686
asg646
(lp1326
I884431
aI885831
aI913400
aI880994
aI884271
aI880711
aI873935
aI908352
aI881680
aI885360
asg648
(lp1327
I66988
aI66967
aI66798
aI63103
aI66881
aI66583
aI66972
aI62814
aI66660
aI66758
asg650
(lp1328
I1628791
aI1636061
aI1666247
aI1649553
aI1639257
aI1635334
aI1632122
aI1633127
aI1564654
aI1629100
asg652
(lp1329
I301857
aI302255
aI318500
aI302754
aI302663
aI299138
aI302643
aI302282
aI298618
aI309958
asg654
(lp1330
I640795
aI700112
aI697161
aI708739
aI693215
aI701195
aI704432
aI700827
aI728477
aI703605
asg656
(lp1331
I18809
aI15280
aI15137
aI15137
aI18902
aI14583
aI15283
aI15283
aI14585
aI15283
asg658
(lp1332
I169411
aI163364
aI159610
aI159749
aI159720
aI159630
aI163395
aI163349
aI158236
aI159912
asg660
(lp1333
I380424
aI380337
aI387207
aI376633
aI376306
aI376429
aI388487
aI391406
aI376105
aI353107
asg662
(lp1334
I15140
aI15192
aI15268
aI15287
aI15296
aI15217
aI25201
aI15281
aI15228
aI15205
asg664
(lp1335
I392656
aI391807
aI399179
aI392525
aI322921
aI299156
aI422637
aI396031
aI392853
aI392556
asg666
(lp1336
I1887953
aI1877839
aI1828277
aI1878024
aI1892237
aI1868356
aI1883186
aI1894774
aI1884230
aI1890981
asg668
(lp1337
I336484
aI333323
aI333369
aI316529
aI357558
aI350498
aI337256
aI337833
aI336670
aI345691
asg670
(lp1338
I1222039
aI1230345
aI1233991
aI1227742
aI1297208
aI1253518
aI1246609
aI1075616
aI1152100
aI1222512
asg672
(lp1339
I668347
aI606369
aI715709
aI654667
aI719748
aI724603
aI802529
aI678470
aI727537
aI711256
asg674
(lp1340
I1221109
aI1147956
aI1293456
aI1313772
aI1150536
aI1320691
aI1317137
aI1292670
aI1144783
aI1289508
asg676
(lp1341
I1153014
aI1173053
aI1160761
aI1163469
aI1120792
aI1167001
aI1163270
aI1161233
aI1010832
aI1167427
asg678
(lp1342
I2533644
aI2485448
aI2395934
aI2509191
aI2461498
aI2360440
aI2427017
aI2454530
aI2462263
aI2358022
asg680
(lp1343
I1415724
aI1252645
aI1294258
aI1158497
aI1063109
aI1303551
aI1549939
aI1297909
aI1181645
aI1048007
asg682
(lp1344
I535545
aI539547
aI532080
aI532208
aI535755
aI539341
aI535691
aI538770
aI543124
aI532377
asg684
(lp1345
I409869
aI519122
aI216272
aI539841
aI550590
aI732184
aI495450
aI521562
aI503153
aI498309
asg686
(lp1346
I14497
aI261611
aI325965
aI307707
aI18701
aI307698
aI307550
aI307692
aI311045
aI307752
asg688
(lp1347
I463696
aI459801
aI460031
aI459972
aI466828
aI463542
aI463430
aI470028
aI463244
aI466805
asg690
(lp1348
I1282040
aI1208728
aI1219241
aI1285995
aI1309182
aI1274392
aI1282941
aI1278811
aI1279339
aI1278646
asg692
(lp1349
I487393
aI498130
aI520097
aI527704
aI531183
aI463149
aI522943
aI543427
aI487876
aI478652
asg694
(lp1350
I751527
aI751782
aI781065
aI750497
aI751467
aI754955
aI747539
aI755340
aI743141
aI751020
asg696
(lp1351
I4407824
aI1089045
aI4315996
aI1151193
aI1181472
aI2775962
aI1157613
aI3415448
aI4472762
aI4443752
asg698
(lp1352
I284598
aI266307
aI269719
aI269312
aI269673
aI265999
aI269654
aI272931
aI269651
aI234806
asg700
(lp1353
I953491
aI951465
aI954880
aI950341
aI786806
aI949964
aI982829
aI953337
aI950918
aI943267
asg702
(lp1354
I57910
aI58621
aI50714
aI58884
aI57546
aI61791
aI58608
aI58826
aI58471
aI58477
asg704
(lp1355
I1719952
aI1664610
aI1972011
aI1695597
aI1668060
aI1052795
aI1785626
aI1837237
aI1768064
aI1837151
asg706
(lp1356
I224332
aI214099
aI221393
aI220879
aI218297
aI214175
aI220966
aI220600
aI228534
aI213944
asg708
(lp1357
I66665
aI77027
aI98064
aI70167
aI68712
aI65787
aI81540
aI65795
aI85837
aI70182
asg710
(lp1358
I500478
aI507372
aI499991
aI471301
aI406753
aI500370
aI507036
aI499965
aI419196
aI483068
asg712
(lp1359
I320891
aI320873
aI319398
aI320738
aI324305
aI323377
aI320178
aI320632
aI320835
aI336759
asg714
(lp1360
I617360
aI592070
aI616362
aI628089
aI623441
aI627063
aI0
aI620733
aI15167
aI620799
asg716
(lp1361
I246009
aI205551
aI206251
aI202199
aI209519
aI209722
aI209861
aI236570
aI214307
aI213982
asg718
(lp1362
I114963
aI115324
aI114365
aI114957
aI111421
aI110962
aI114941
aI114783
aI118743
aI114872
asg720
(lp1363
I2651559
aI860325
aI819795
aI798449
aI819550
aI801787
aI2462107
aI864276
aI823570
aI834675
asg722
(lp1364
I2127260
aI2005548
aI2032282
aI2144670
aI2061139
aI2059943
aI1998222
aI2064031
aI2048609
aI2048577
asg724
(lp1365
I278453
aI285804
aI278538
aI293256
aI281845
aI281731
aI285014
aI278057
aI278445
aI322012
asg726
(lp1366
I34441
aI42353
aI34887
aI42254
aI38251
aI34655
aI34742
aI34589
aI34738
aI34741
asg728
(lp1367
I1969643
aI1986431
aI1938142
aI1969301
aI1943819
aI1958951
aI1976935
aI1961618
aI1969678
aI1976242
asg730
(lp1368
I748564
aI728187
aI673719
aI760563
aI701671
aI705467
aI709297
aI757171
aI686605
aI720062
asg732
(lp1369
I838209
aI849848
aI857016
aI845254
aI871592
aI833341
aI856207
aI853041
aI856250
aI849569
asg734
(lp1370
I18647
aI18991
aI14791
aI15329
aI19011
aI14647
aI18981
aI14869
aI19000
aI18999
asg736
(lp1371
I888422
aI846298
aI866321
aI874260
aI875319
aI868974
aI768081
aI871155
aI886127
aI877706
asg738
(lp1372
I553029
aI493732
aI597985
aI601073
aI626807
aI600444
aI594642
aI594459
aI516835
aI594796
asg740
(lp1373
I769614
aI785491
aI782325
aI778721
aI769533
aI782200
aI717322
aI734200
aI787823
aI774688
asg742
(lp1374
I560593
aI525749
aI518161
aI519059
aI521892
aI522278
aI518297
aI522300
aI521255
aI531745
asg744
(lp1375
I1969565
aI1966031
aI1955959
aI1951047
aI1950288
aI1960359
aI1958299
aI1953800
aI1958379
aI1948279
asg746
(lp1376
I342701
aI363890
aI339413
aI342666
aI342874
aI306343
aI341240
aI339401
aI342680
aI342659
asg748
(lp1377
I992817
aI980831
aI979778
aI989084
aI981043
aI983414
aI908461
aI985485
aI985034
aI984592
asg750
(lp1378
I2989891
aI3467116
aI3292847
aI3350000
aI3492815
aI3622518
aI3611245
aI3037155
aI2483372
aI3543693
asg752
(lp1379
I1027148
aI1195021
aI1198174
aI1200042
aI1202485
aI1045868
aI1138464
aI1255895
aI1038208
aI991149
asg754
(lp1380
I3833725
aI3817278
aI3814902
aI3853458
aI3864782
aI3852964
aI3839647
aI3874754
aI3868704
aI3836919
asg756
(lp1381
I2374288
aI2388970
aI2349665
aI2455259
aI2381894
aI2369236
aI2459391
aI2490602
aI2294883
aI2290374
asg758
(lp1382
I1478656
aI1499942
aI1458713
aI1464934
aI1461448
aI1482373
aI1457244
aI1470820
aI1480482
aI1476441
asg760
(lp1383
I1535357
aI1354372
aI1346371
aI1366621
aI1844576
aI1543469
aI1471581
aI1611251
aI1531374
aI1980182
asg762
(lp1384
I34724
aI34705
aI34722
aI34728
aI38411
aI34744
aI34648
aI34741
aI34566
aI38445
asg764
(lp1385
I23060
aI23123
aI23098
aI23131
aI23099
aI23123
aI23128
aI23119
aI23091
aI23157
asg766
(lp1386
I1715249
aI1875089
aI1847629
aI1891655
aI1819573
aI1730768
aI1868225
aI1834918
aI1920424
aI1856076
asg768
(lp1387
I257888
aI257448
aI265437
aI257389
aI260720
aI257530
aI261401
aI257311
aI257716
aI241354
asg770
(lp1388
I740571
aI747650
aI829528
aI796238
aI731936
aI808804
aI756976
aI736421
aI717567
aI775293
asg772
(lp1389
I1136412
aI1173675
aI1153790
aI1217905
aI1173326
aI1173635
aI1173324
aI698863
aI1074830
aI1112703
asg774
(lp1390
I1450930
aI1454917
aI1454088
aI1418261
aI1447185
aI1437723
aI1458603
aI1414066
aI1450354
aI1497790
asg776
(lp1391
I270292
aI222329
aI330187
aI301162
aI322738
aI312601
aI309008
aI297672
aI217949
aI397327
asg778
(lp1392
I343261
aI347101
aI342960
aI346957
aI343681
aI346699
aI354253
aI343164
aI345605
aI343275
asg780
(lp1393
I1273597
aI1184444
aI1200711
aI1164937
aI1091175
aI1253697
aI1152825
aI1958876
aI988128
aI1337294
asg782
(lp1394
I177493
aI182947
aI178836
aI178782
aI186737
aI182235
aI186687
aI174951
aI178726
aI177615
asg784
(lp1395
I1330073
aI1296888
aI1352961
aI1322829
aI1338695
aI1334730
aI1359316
aI1319189
aI1330073
aI1350088
asg786
(lp1396
I1743783
aI1937264
aI1933285
aI1930506
aI1943599
aI1928921
aI1997215
aI1913052
aI1876820
aI2035717
asg788
(lp1397
I1657141
aI1661476
aI1571995
aI1637201
aI1652182
aI1528626
aI1629431
aI1651061
aI1617405
aI1634688
asg790
(lp1398
I684675
aI636474
aI636437
aI588044
aI636397
aI640637
aI636478
aI639783
aI636439
aI636477
asg792
(lp1399
I307532
aI307997
aI307521
aI304340
aI307716
aI307613
aI304277
aI304021
aI259235
aI303798
asg794
(lp1400
I388426
aI403085
aI392152
aI375914
aI392037
aI404162
aI395471
aI392018
aI391182
aI388589
asg796
(lp1401
I2145196
aI2173344
aI2115987
aI2176631
aI2160034
aI2180469
aI2192207
aI2184868
aI2176832
aI2184419
asg798
(lp1402
I178947
aI178610
aI198410
aI174594
aI185860
aI175351
aI182245
aI178715
aI178772
aI178760
asg800
(lp1403
I211268
aI186945
aI195478
aI194622
aI183371
aI191093
aI198742
aI193927
aI194019
aI153626
asg802
(lp1404
I15314
aI14959
aI18187
aI15081
aI15371
aI15270
aI18787
aI15047
aI14732
aI15060
asg804
(lp1405
I1593095
aI1576523
aI1701395
aI1689911
aI1682668
aI1702443
aI1702115
aI1696920
aI1713268
aI1693933
asg806
(lp1406
I632511
aI615120
aI513675
aI527702
aI619550
aI670442
aI478962
aI556996
aI599074
aI489419
asg808
(lp1407
I611963
aI608536
aI616078
aI611884
aI615403
aI607401
aI612190
aI623077
aI615490
aI608304
asg810
(lp1408
I235639
aI239208
aI235727
aI235793
aI239631
aI235737
aI235068
aI235076
aI227108
aI242930
asg812
(lp1409
I832494
aI834374
aI746731
aI771162
aI867395
aI775532
aI870167
aI726572
aI775310
aI815669
asg814
(lp1410
I795233
aI900459
aI903869
aI884318
aI900082
aI907999
aI912205
aI904696
aI904563
aI914289
asg816
(lp1411
I1245243
aI1210218
aI483824
aI1198523
aI1237545
aI962549
aI1258033
aI1096013
aI1170693
aI1194732
asg818
(lp1412
I267152
aI19072
aI270617
aI283102
aI270076
aI266903
aI267383
aI10249
aI270054
aI266079
asg820
(lp1413
I540274
aI540553
aI540532
aI542631
aI540383
aI540540
aI538601
aI544129
aI539989
aI600313
asg822
(lp1414
I1123221
aI1126679
aI1011799
aI1103675
aI1120417
aI1120120
aI1125853
aI1122702
aI1135385
aI1126545
asg824
(lp1415
I1182139
aI1307021
aI1326287
aI1314527
aI1334598
aI1326479
aI1344926
aI1297883
aI1304202
aI1344206
asg826
(lp1416
I1843448
aI1833882
aI1713126
aI1806584
aI1806655
aI1720526
aI1693826
aI1770090
aI1812326
aI1737716
asg828
(lp1417
I976620
aI994363
aI980767
aI981319
aI977049
aI979626
aI977352
aI952867
aI983933
aI986620
asg830
(lp1418
I734820
aI727060
aI674206
aI731077
aI731139
aI727905
aI734894
aI733617
aI734867
aI737982
asg832
(lp1419
I3047579
aI3067863
aI3083944
aI3072578
aI2955057
aI3073410
aI3079823
aI2984056
aI2722488
aI3103571
asg834
(lp1420
I307132
aI307137
aI307078
aI307078
aI310657
aI307077
aI307187
aI307051
aI307115
aI354926
asg836
(lp1421
I2886996
aI2955230
aI3278207
aI3181795
aI3173132
aI2758051
aI2983954
aI2730462
aI3322476
aI3102762
asg838
(lp1422
I34726
aI37694
aI34758
aI33645
aI34641
aI34469
aI34570
aI34716
aI34903
aI34753
asg840
(lp1423
I879622
aI792143
aI896061
aI840589
aI888668
aI877427
aI800534
aI868848
aI805881
aI853054
asg842
(lp1424
I187006
aI187051
aI186097
aI193899
aI187031
aI186826
aI183021
aI190176
aI186724
aI185863
asg844
(lp1425
I462722
aI131009
aI353327
aI554364
aI134517
aI353320
aI330116
aI396426
aI161069
aI137419
asg846
(lp1426
I711218
aI699800
aI732611
aI471700
aI698991
aI733591
aI732225
aI729676
aI673419
aI690205
asg848
(lp1427
I645761
aI631525
aI635233
aI631802
aI639514
aI635711
aI634564
aI618796
aI635820
aI646571
asg850
(lp1428
I34938
aI18698
aI15242
aI15299
aI15268
aI15297
aI15123
aI15244
aI15099
aI15261
asg852
(lp1429
I1393516
aI1505983
aI1496304
aI1499225
aI1446123
aI1498646
aI1545892
aI1512754
aI1517460
aI1482808
asg854
(lp1430
I315399
aI302839
aI296243
aI306131
aI303207
aI299257
aI296123
aI296426
aI299942
aI302412
asg856
(lp1431
I758792
aI754939
aI758561
aI757872
aI769772
aI751073
aI757737
aI762119
aI758451
aI754324
asg858
(lp1432
I1262027
aI1087128
aI1223855
aI1240446
aI1242885
aI1177310
aI1239875
aI1214165
aI1163758
aI1227327
asg860
(lp1433
I571283
aI560231
aI563185
aI559478
aI556671
aI563070
aI560505
aI542862
aI559484
aI555906
asg862
(lp1434
I494028
aI486997
aI486977
aI489590
aI481051
aI470731
aI467445
aI487089
aI489980
aI502757
asg864
(lp1435
I1139547
aI1248616
aI1232190
aI1143991
aI1023858
aI1134476
aI1143035
aI1146723
aI1231628
aI1232104
asg866
(lp1436
I790395
aI797798
aI707007
aI794531
aI794815
aI797347
aI787425
aI791333
aI790683
aI794146
asg868
(lp1437
I651658
aI640060
aI638743
aI839840
aI910291
aI651825
aI616447
aI655127
aI953407
aI875251
asg870
(lp1438
I1103957
aI1022643
aI1155673
aI747698
aI779749
aI1046209
aI825060
aI1021592
aI1083532
aI15301
asg872
(lp1439
I117946
aI106436
aI102986
aI105556
aI103014
aI102958
aI106487
aI106393
aI110815
aI106224
asg874
(lp1440
I537738
aI538716
aI538511
aI1079758
aI540896
aI542257
aI541431
aI545800
aI549240
aI542908
asg876
(lp1441
I665372
aI658075
aI653737
aI706322
aI690803
aI658212
aI702206
aI658710
aI678006
aI654134
asg878
(lp1442
I22527
aI15299
aI15314
aI15356
aI15308
aI14751
aI15282
aI14855
aI15298
aI15153
asg880
(lp1443
I862190
aI863354
aI867244
aI876586
aI863699
aI863618
aI867663
aI863040
aI862737
aI839237
asg882
(lp1444
I1047680
aI1073947
aI1054990
aI1048245
aI1045590
aI1055305
aI961209
aI1045640
aI996075
aI18830
asg884
(lp1445
I2112255
aI3366
aI2109214
aI2100064
aI2154277
aI2114997
aI2066311
aI2106526
aI2074101
asg886
(lp1446
I321982
aI331293
aI339577
aI323704
aI294810
aI323199
aI323604
aI323519
aI361088
aI323590
asg888
(lp1447
I1410706
aI1431478
aI1450341
aI1419314
aI1450277
aI1411097
aI1430814
aI1445406
aI1450984
aI1423031
asg890
(lp1448
I770639
aI801261
aI769662
aI750392
aI747371
aI778630
aI757859
aI786964
aI760469
aI768599
asg892
(lp1449
I1705376
aI1713488
aI1710496
aI1714583
aI1710818
aI1711463
aI1721645
aI1745223
aI1702451
aI1717456
asg894
(lp1450
I719139
aI771716
aI804401
aI813092
aI809385
aI841988
aI779585
aI787296
aI798494
aI814150
asg896
(lp1451
I2276409
aI2377695
aI2397684
aI2433196
aI2400672
aI2570145
aI2542725
aI2616305
aI2442367
aI2430697
asg898
(lp1452
I1354396
aI1339858
aI1442544
aI1438870
aI1459756
aI1307894
aI1424009
aI1340442
aI1428539
aI1341378
asg900
(lp1453
I473912
aI412888
aI466612
aI468692
aI466049
aI469909
aI466408
aI450323
aI490256
aI475649
asg902
(lp1454
I895307
aI894771
aI725256
aI912109
aI909790
aI898621
aI891611
aI898568
aI895150
aI885018
asg904
(lp1455
I1879512
aI1887568
aI1887026
aI1874052
aI1895194
aI1885943
aI1827483
aI1831043
aI1893259
aI1890946
asg906
(lp1456
I372156
aI368007
aI372406
aI388177
aI368273
aI368044
aI372035
aI371930
aI371681
aI376455
asg908
(lp1457
I231351
aI267801
aI270892
aI271143
aI19010
aI267823
aI270218
aI274107
aI266974
aI271103
asg910
(lp1458
I328330
aI339217
aI1024305
aI309440
aI329616
aI409167
aI325781
aI1401426
aI323840
aI320619
asg912
(lp1459
I34712
aI34707
aI34719
aI34741
aI34676
aI34701
aI34563
aI34620
aI34794
aI34693
asg914
(lp1460
I840695
aI848289
aI197411
aI181600
aI169257
aI856542
aI178414
aI833222
aI178479
aI178216
asg916
(lp1461
I2276395
aI2259801
aI2155321
aI2264060
aI2005453
aI2296028
aI2375138
aI2273004
aI1571894
aI2259346
asg918
(lp1462
I2503763
aI2457755
aI2527371
aI2519161
aI2349070
aI2772875
aI2799914
aI2362315
aI2513662
aI2446303
asg920
(lp1463
I451547
aI454632
aI469445
aI451287
aI447659
aI454466
aI454598
aI423220
aI458389
aI482534
asg922
(lp1464
I126131
aI122725
aI126007
aI133041
aI125936
aI126004
aI126047
aI122649
aI125413
aI121057
asg924
(lp1465
I1071779
aI1056393
aI1044127
aI1073446
aI14514
aI1035517
aI1048042
aI1048104
aI18855
aI1064076
asg926
(lp1466
I1621682
aI1617789
aI2097491
aI1526505
aI1669621
aI1485674
aI1618225
aI1570545
aI1650844
aI1545074
asg928
(lp1467
I397974
aI393518
aI899526
aI390657
aI390829
aI386341
aI390647
aI389706
aI390406
aI420870
asg930
(lp1468
I874867
aI987570
aI955701
aI897686
aI951678
aI963799
aI1049699
aI987818
aI894646
aI855443
asg932
(lp1469
I173343
aI154616
aI158413
aI158420
aI158501
aI154746
aI154543
aI170409
aI154956
aI155049
asg934
(lp1470
I15284
aI15057
aI15166
aI1111050
aI15098
aI23083
aI15030
aI15025
aI15154
aI15197
asg936
(lp1471
I385725
aI373144
aI371953
aI357094
aI369072
aI358929
aI388469
aI372328
aI401108
aI379102
asg938
(lp1472
I588397
aI584661
aI577862
aI580886
aI577522
aI577848
aI577019
aI581160
aI573784
aI577718
asg940
(lp1473
I70810
aI66406
aI67034
aI70627
aI70675
aI70715
aI70590
aI70603
aI70466
aI70655
asg942
(lp1474
I37835
aI34601
aI34723
aI34527
aI34683
aI34710
aI34691
aI34689
aI34821
aI34832
asg944
(lp1475
I808260
aI807965
aI809014
aI808087
aI808924
aI821259
aI811474
aI816318
aI812375
aI804630
asg946
(lp1476
I2261871
aI2251480
aI2290193
aI2389659
aI2220841
aI2102558
aI1777578
aI2302726
aI2257612
aI2307247
asg948
(lp1477
I573355
aI573507
aI584681
aI588306
aI573880
aI573538
aI577045
aI587494
aI576267
aI577060
asg950
(lp1478
I15266
aI15172
aI14963
aI15274
aI15317
aI14986
aI15172
aI15360
aI15210
aI15240
asg952
(lp1479
I339401
aI352030
aI351813
aI352078
aI352165
aI352125
aI355566
aI352125
aI352052
aI355756
asg954
(lp1480
I738194
aI741443
aI726953
aI731105
aI748052
aI742315
aI744572
aI738216
aI748409
aI751470
asg956
(lp1481
I137648
aI138285
aI138197
aI138399
aI141354
aI137424
aI141776
aI138436
aI134652
aI138585
asg958
(lp1482
I324301
aI319829
aI324046
aI324640
aI327898
aI320839
aI328092
aI324248
aI320654
aI317199
asg960
(lp1483
I685278
aI688848
aI681100
aI700513
aI685651
aI689011
aI656652
aI692592
aI689128
aI689073
asg962
(lp1484
I2193558
aI2133323
aI2219283
aI2236613
aI2221004
aI2157630
aI2201601
aI2200894
aI2042320
aI2153673
asg964
(lp1485
I303589
aI303370
aI299775
aI302944
aI298990
aI299719
aI305736
aI310094
aI338246
aI306731
asg966
(lp1486
I1206195
aI1218603
aI1325775
aI1269238
aI1233776
aI1271456
aI1294028
aI1437668
aI1304943
aI1260796
asg968
(lp1487
I384061
aI372093
aI390077
aI372275
aI452392
aI372138
aI371597
aI21860
aI372153
aI372342
asg970
(lp1488
I1267308
aI1271846
aI1252438
aI1181752
aI1284409
aI1210990
aI1101682
aI1245898
aI1279245
aI1235378
asg972
(lp1489
I941817
aI957993
aI961491
aI945721
aI950288
aI949682
aI956217
aI953155
aI930246
aI945879
asg974
(lp1490
I366022
aI380318
aI376004
aI369280
aI373579
aI366187
aI389282
aI368528
aI376513
aI373439
asg976
(lp1491
I1670795
aI1562400
aI1562500
aI1561936
aI1562686
aI1553504
aI1581893
aI1611000
aI1581548
aI1562379
asg978
(lp1492
I967327
aI697110
aI700524
aI984741
aI700554
aI971623
aI982776
aI983161
aI972365
aI973076
asg980
(lp1493
I217124
aI213933
aI205713
aI250376
aI210749
aI206543
aI214203
aI249791
aI214126
aI213882
asg982
(lp1494
I919858
aI990415
aI971520
aI975914
aI990897
aI974968
aI979158
aI659586
aI1002720
aI945949
asg984
(lp1495
I722140
aI700815
aI715558
aI705296
aI672312
aI626702
aI732397
aI722143
aI735789
aI696885
asg986
(lp1496
I3050467
aI3219476
aI3037199
aI3166993
aI3631670
aI3058538
aI2892553
aI3085681
aI3555567
aI3002606
asg988
(lp1497
I1306089
aI1517366
aI1500089
aI1532235
aI1515986
aI1529450
aI1532069
aI1557995
aI1541238
aI1556395
asg990
(lp1498
I293238
aI296834
aI309084
aI296041
aI289900
aI316592
aI309307
aI305281
aI289338
aI313085
asg992
(lp1499
I1629030
aI1632521
aI1636103
aI1661991
aI1625516
aI1635898
aI1627920
aI1612494
aI1627479
aI1643162
asg994
(lp1500
I34788
aI41433
aI34470
aI44811
aI34687
aI34704
aI38180
aI34689
aI34715
aI34693
asg996
(lp1501
I1289982
aI1286802
aI1294244
aI1283456
aI1280087
aI1283428
aI1283181
aI1293797
aI1286708
aI1286810
asg998
(lp1502
I19166
aI19118
aI21837
aI22895
aI22932
aI22869
aI19179
aI18930
aI22912
aI22871
asg1000
(lp1503
I1303928
aI1286024
aI1286921
aI1238038
aI1230122
aI1249766
aI1239707
aI1296955
aI1275367
aI1287239
asg1002
(lp1504
I1426415
aI1390573
aI1402991
aI1314172
aI1406659
aI1418598
aI1415773
aI1374431
aI1414761
aI1394339
ast.