(ccollections
defaultdict
p1
(c__builtin__
list
p2
tRp3
S'http---paginasamarillas.es'
p4
(lp5
F12.4
aF9.1229999999999993
aF14.300000000000001
aF13.699999999999999
aF11.6
aF8.5470000000000006
aF11.199999999999999
aF7.8460000000000001
aF11.199999999999999
aF8.8599999999999994
asS'http---hootsuite.com'
p6
(lp7
F14.5
aF14.5
aF14.5
aF14.6
aF14.5
aF14.5
aF14.5
aF14.5
aF14.300000000000001
aF14.5
asS'http---comuniazo.com'
p8
(lp9
F6.2859999999999996
aF6.1660000000000004
aF8.2910000000000004
aF6.6100000000000003
aF6.7770000000000001
aF8.4700000000000006
aF7.5069999999999997
aF11.4
aF6.75
aF5.375
asS'http---publico.es'
p10
(lp11
F15.1
aF6.2110000000000003
aF15.199999999999999
aF12
aF13.5
aF13.5
aF14.699999999999999
aF12.699999999999999
aF15.9
aF7.8949999999999996
asS'http---clicksvenue.com'
p12
(lp13
F14.1
aF5.742
aF8.0999999999999996
aF13
aF9.4100000000000001
aF6.0140000000000002
aF7.4429999999999996
aF9.8160000000000007
aF7.3250000000000002
aF10.1
asS'http---samsung.com'
p14
(lp15
F15.300000000000001
aF8.8550000000000004
aF7.7919999999999998
aF10.4
aF8.4320000000000004
aF9.9969999999999999
aF10.4
aF12
aF9.6349999999999998
aF7.3120000000000003
asS'http---hattrick.org'
p16
(lp17
F12.9
aF10.199999999999999
aF14.300000000000001
aF11.300000000000001
aF14.9
aF7.7939999999999996
aF13.199999999999999
aF14.9
aF15.699999999999999
aF11.4
asS'http---trivago.es'
p18
(lp19
F6.9429999999999996
aF15.5
aF5.6050000000000004
aF10.199999999999999
aF7.782
aF13.9
aF13.800000000000001
aF13.4
aF5.3970000000000002
aF5.2930000000000001
asS'http---thefreecamsecret.com'
p20
(lp21
F12.699999999999999
aF6.2460000000000004
aF11.199999999999999
aF9.3480000000000008
aF6.2640000000000002
aF9.141
aF13.5
aF7.1449999999999996
aF5.5
aF6.6859999999999999
asS'http---wix.com'
p22
(lp23
F7.359
aF7.7859999999999996
aF8.2530000000000001
aF11.4
aF9.3979999999999997
aF6.665
aF10.6
aF7.5060000000000002
aF7.7210000000000001
aF8.3149999999999995
asS'http---idealista.com'
p24
(lp25
F7.5650000000000004
aF12.4
aF7.4249999999999998
aF7.1100000000000003
aF6.1589999999999998
aF8.2590000000000003
aF9.4619999999999997
aF10.199999999999999
aF12.199999999999999
aF6.6340000000000003
asS'http---gameforge.com'
p26
(lp27
F8.1159999999999997
aF10.6
aF10.4
aF7.2649999999999997
aF8.6210000000000004
aF7.4039999999999999
aF7.2830000000000004
aF14.800000000000001
aF11.1
aF8.1999999999999993
asS'http---formulatv.com'
p28
(lp29
F15.6
aF14.5
aF14.9
aF14.6
aF14.4
aF14.6
aF14.5
aF12.9
aF13.4
aF14.199999999999999
asS'http---periodistadigital.com'
p30
(lp31
F15.199999999999999
aF14.6
aF12.9
aF14.6
aF13.1
aF14.199999999999999
aF14.300000000000001
aF14.5
aF12.699999999999999
aF12.5
asS'http---hstpnetwork.com'
p32
(lp33
F10.6
aF12.5
aF7.7809999999999997
aF6.6470000000000002
aF15.5
aF10.199999999999999
aF5.2619999999999996
aF5.4960000000000004
aF6.4020000000000001
aF6.3380000000000001
asS'http---ad6media.fr'
p34
(lp35
F13.4
aF13.9
aF9.3230000000000004
aF12.800000000000001
aF14.1
aF15.1
aF13.699999999999999
aF13.6
aF13
aF12.9
asS'http---vandal.net'
p36
(lp37
F0
aF15.199999999999999
aF0
aF0
aF0
aF0
aF0
aF4.8630000000000004
aF14.9
aF0
asS'http---google.com'
p38
(lp39
F9.4589999999999996
aF6.0750000000000002
aF10.6
aF8.8219999999999992
aF10.1
aF11.800000000000001
aF6.0099999999999998
aF15
aF14.6
aF6.4569999999999999
asS'http---juegosonce.es'
p40
(lp41
F5.9340000000000002
aF6.6740000000000004
aF6.5629999999999997
aF6.4939999999999998
aF6.125
aF6.2569999999999997
aF9.5109999999999992
aF6.7750000000000004
aF6.4470000000000001
aF7.6120000000000001
asS'http---domaintools.com'
p42
(lp43
F8.0190000000000001
aF15.1
aF9.9450000000000003
aF11.699999999999999
aF9.3390000000000004
aF9.923
aF9.7309999999999999
aF12.4
aF11.1
aF9.9320000000000004
asS'http---bild.de'
p44
(lp45
F9.2430000000000003
aF7.0460000000000003
aF7.343
aF6.6589999999999998
aF6.5209999999999999
aF7.6059999999999999
aF8.1739999999999995
aF13.9
aF8.0410000000000004
aF8.0559999999999992
asS'http---get-a-fuck-tonight.com'
p46
(lp47
F6.2930000000000001
aF5.4500000000000002
aF5.7389999999999999
aF6.944
aF9.7029999999999994
aF10.199999999999999
aF5.702
aF5.7329999999999997
aF5.9589999999999996
aF5.8259999999999996
asS'http---cumlouder.com'
p48
(lp49
F10.9
aF9.0229999999999997
aF14.4
aF9.0370000000000008
aF5.6390000000000002
aF6.04
aF7.1280000000000001
aF6.8609999999999998
aF6.8239999999999998
aF11.199999999999999
asS'http---google.fr'
p50
(lp51
F6.476
aF5.5590000000000002
aF11.800000000000001
aF9.9760000000000009
aF6.1429999999999998
aF6.5350000000000001
aF13.300000000000001
aF15.6
aF6.1210000000000004
aF8.2539999999999996
asS'http---tiendeo.com'
p52
(lp53
F12.1
aF14.800000000000001
aF10.199999999999999
aF10.1
aF12.6
aF8.9399999999999995
aF10.300000000000001
aF8.0150000000000006
aF9.7010000000000005
aF7.5819999999999999
asS'http---ub.edu'
p54
(lp55
F9.4339999999999993
aF7.9619999999999997
aF7.0869999999999997
aF5.968
aF6.117
aF6.2229999999999999
aF5.423
aF5.335
aF6.4429999999999996
aF8.6379999999999999
asS'http---fotolia.com'
p56
(lp57
F11.6
aF14.9
aF13.1
aF10.9
aF12.4
aF11
aF11.699999999999999
aF14.5
aF12.800000000000001
aF13.1
asS'http---wikia.com'
p58
(lp59
F6.9130000000000003
aF9.3140000000000001
aF10.199999999999999
aF8.6270000000000007
aF9.5429999999999993
aF10
aF9.9700000000000006
aF10.4
aF6.3170000000000002
aF12.6
asS'http---addthis.com'
p60
(lp61
F13.1
aF11.6
aF12
aF10.199999999999999
aF8.2919999999999998
aF8.7949999999999999
aF11
aF11.800000000000001
aF10.5
aF12.4
asS'http---puromarketing.com'
p62
(lp63
F9.9169999999999998
aF6.641
aF6.6159999999999997
aF6.0629999999999997
aF6.9500000000000002
aF9.9860000000000007
aF8.5730000000000004
aF6.6369999999999996
aF5.9210000000000003
aF6.1669999999999998
asS'http---spalumi.com'
p64
(lp65
F11.699999999999999
aF9.8309999999999995
aF10.800000000000001
aF12.199999999999999
aF11.4
aF9.2080000000000002
aF9.7240000000000002
aF11.5
aF10.800000000000001
aF10.199999999999999
asS'http---doublepimp.com'
p66
(lp67
F11.4
aF12.300000000000001
aF14.6
aF14.6
aF12.1
aF9.2720000000000002
aF14.5
aF10.6
aF9.2629999999999999
aF13
asS'http---solostocks.com'
p68
(lp69
F13.199999999999999
aF15.9
aF13.9
aF13.9
aF14
aF13
aF15.300000000000001
aF13.6
aF14.300000000000001
aF14.199999999999999
asS'http---catalunyacaixa.com'
p70
(lp71
F7.2759999999999998
aF13.4
aF6.0510000000000002
aF10.199999999999999
aF10.9
aF15.5
aF11.199999999999999
aF12.699999999999999
aF7.8460000000000001
aF9.8659999999999997
asS'http---instagram.com'
p72
(lp73
F6.9509999999999996
aF6.2770000000000001
aF7.9960000000000004
aF5.423
aF6.8259999999999996
aF6.46
aF9.4190000000000005
aF6.9130000000000003
aF5.9560000000000004
aF6.4729999999999999
asS'http---msn.com'
p74
(lp75
F11
aF12.4
aF10.800000000000001
aF12.9
aF10.4
aF10.6
aF10.5
aF10.300000000000001
aF10.5
aF11
asS'http---larazon.es'
p76
(lp77
F15.800000000000001
aF10.9
aF13.300000000000001
aF14.4
aF13.800000000000001
aF12.5
asS'http---elconfidencial.com'
p78
(lp79
F12.800000000000001
aF13.699999999999999
aF14.1
aF15.699999999999999
aF15.5
aF13.800000000000001
aF14.5
aF12.699999999999999
aF15
aF14.300000000000001
asS'http---autoscout24.es'
p80
(lp81
F6.5449999999999999
aF15.1
aF6.7560000000000002
aF12.1
aF11.1
aF9.9209999999999994
aF9.5500000000000007
aF5.9749999999999996
aF5.7619999999999996
aF6.125
asS'http---ixxx.com'
p82
(lp83
F6.7480000000000002
aF9.6980000000000004
aF14.699999999999999
aF8.1180000000000003
aF10.699999999999999
aF9.4640000000000004
aF8.6709999999999994
aF9.6539999999999999
aF8.7249999999999996
aF12.6
asS'http---xatakamovil.com'
p84
(lp85
F9.8260000000000005
aF9.8360000000000003
aF11.5
aF13.6
aF14.5
aF12.9
aF13.6
aF13.300000000000001
aF10.800000000000001
aF10
asS'http---xvideos.com'
p86
(lp87
F9.8879999999999999
aF14.300000000000001
aF6.827
aF7.0659999999999998
aF7.4640000000000004
aF10.6
aF13.6
aF7.0359999999999996
aF6.4829999999999997
aF6.6070000000000002
asS'http---linkbucks.com'
p88
(lp89
F12.5
aF12.300000000000001
aF12
aF10.699999999999999
aF12.1
aF15.5
aF7.9889999999999999
aF8.0559999999999992
aF14.9
aF7.7320000000000002
asS'http---yandex.ru'
p90
(lp91
F11.800000000000001
aF11.199999999999999
aF5.3920000000000003
aF12.4
aF5.6970000000000001
aF14.300000000000001
aF6.8550000000000004
aF13.699999999999999
aF6.9429999999999996
aF5.6680000000000001
asS'http---vueling.com'
p92
(lp93
F15.4
aF13.300000000000001
aF14.300000000000001
aF12
aF15
aF14.300000000000001
aF13.6
aF14.6
aF15.800000000000001
aF15.1
asS'http---feedsportal.com'
p94
(lp95
F11.9
aF7.4180000000000001
aF6.6200000000000001
aF9.5749999999999993
aF8.0719999999999992
aF9.1440000000000001
aF12.300000000000001
aF10.300000000000001
aF9.2509999999999994
aF9.2759999999999998
asS'http---lainformacion.com'
p96
(lp97
F14.699999999999999
aF14.5
aF10.300000000000001
aF11.4
aF13.9
aF15.800000000000001
aF14.6
aF13.5
aF10.800000000000001
aF12.1
asS'http---theguardian.com'
p98
(lp99
F10.199999999999999
aF11.699999999999999
aF10.4
aF11.1
aF10.199999999999999
aF7.3330000000000002
aF12.9
aF11.199999999999999
aF10.5
aF12.199999999999999
asS'http---atrapalo.com'
p100
(lp101
F9.8260000000000005
aF14.300000000000001
aF9.1660000000000004
aF7.8449999999999998
aF11.199999999999999
aF8.4640000000000004
aF8.8049999999999997
aF13.6
aF6.9779999999999998
aF8.484
asS'http---forocoches.com'
p102
(lp103
F11.1
aF12
aF10.300000000000001
aF12.800000000000001
aF13.1
aF12.9
aF12.9
aF13.199999999999999
aF12.800000000000001
aF12.6
asS'http---uploaded.net'
p104
(lp105
F12.4
aF5.8490000000000002
aF6.7439999999999998
aF5.7949999999999999
aF5.6699999999999999
aF12.699999999999999
aF12.5
aF6.0419999999999998
aF11
aF5.7930000000000001
asS'http---opensiteexplorer.org'
p106
(lp107
F7.7690000000000001
aF10.800000000000001
aF13.300000000000001
aF6.3789999999999996
aF6.335
aF6.0570000000000004
aF6.3630000000000004
aF7.0010000000000003
aF9.2370000000000001
aF7.1849999999999996
asS'http---atresplayer.com'
p108
(lp109
F6.2009999999999996
aF6.6040000000000001
aF15.199999999999999
aF6.6219999999999999
aF8.3740000000000006
aF8.9580000000000002
aF12.1
aF8.8439999999999994
aF5.6459999999999999
aF6.7140000000000004
asS'http---blablacar.es'
p110
(lp111
F9.6229999999999993
aF12.1
aF13.5
aF14.4
aF13.1
aF13.4
aF11
aF9.3640000000000008
aF12.300000000000001
aF14.6
asS'http---gva.es'
p112
(lp113
F15
aF14.300000000000001
aF12.9
aF10.5
aF10.699999999999999
aF12.5
aF13.4
aF14.5
aF12.199999999999999
aF12.699999999999999
asS'http---ebay.com'
p114
(lp115
F6.3739999999999997
aF5.5339999999999998
aF11.699999999999999
aF6.6849999999999996
aF12.199999999999999
aF9.9760000000000009
aF7.4699999999999998
aF6.3970000000000002
aF11
aF5.7619999999999996
asS'http---wwwhatsnew.com'
p116
(lp117
F15.1
aF16.199999999999999
aF13.6
aF13.699999999999999
aF14.699999999999999
aF12.5
aF13.6
aF11.699999999999999
aF15
aF12.6
asS'http---indeed.es'
p118
(lp119
F12
aF9.2490000000000006
aF5.431
aF6.1580000000000004
aF7.577
aF6.8250000000000002
aF6.5309999999999997
aF6.4279999999999999
aF13.699999999999999
aF6.6580000000000004
asS'http---stackexchange.com'
p120
(lp121
F12.4
aF12.1
aF13.5
aF13.800000000000001
aF11.1
aF15.6
aF9.4339999999999993
aF8.5399999999999991
aF8.2309999999999999
aF13.6
asS'http---as.com'
p122
(lp123
F15.1
aF14.4
aF14.199999999999999
aF14.4
aF13.699999999999999
aF14.5
aF16.300000000000001
aF13.800000000000001
aF14.5
aF14.300000000000001
asS'http---lacaixa.es'
p124
(lp125
F12.300000000000001
aF6.0919999999999996
aF13.699999999999999
aF11.800000000000001
aF6.1980000000000004
aF8.7319999999999993
aF5.3280000000000003
aF6.0640000000000001
aF9.5980000000000008
aF5.3239999999999998
asS'http---zalando.es'
p126
(lp127
F7.7199999999999998
aF6.532
aF6.8689999999999998
aF8.0299999999999994
aF9.3569999999999993
aF7.2249999999999996
aF6.1269999999999998
aF7.54
aF7.516
aF15.5
asS'http---disqus.com'
p128
(lp129
F7.2779999999999996
aF8.8580000000000005
aF16
aF8.5129999999999999
aF14.699999999999999
aF10
aF11.699999999999999
aF15.4
aF14.699999999999999
aF7.6740000000000004
asS'http---sh.st'
p130
(lp131
F13.300000000000001
aF10.9
aF14.6
aF13.9
aF13
aF13.1
aF12.800000000000001
aF12.699999999999999
aF13
aF13.5
asS'http---vistoenlasredes.com'
p132
(lp133
F10.4
aF9.3469999999999995
aF9.6920000000000002
aF9.5779999999999994
aF14.1
aF10.1
aF15.800000000000001
aF13.300000000000001
aF7.6950000000000003
aF9.5800000000000001
asS'http---youporn.com'
p134
(lp135
F10.4
aF5.915
aF13.300000000000001
aF5.8780000000000001
aF6.5540000000000003
aF11.9
aF9.7840000000000007
aF5.2309999999999999
aF10.6
aF6.8609999999999998
asS'http---mismarcadores.com'
p136
(lp137
F14.5
aF13.9
aF14.4
aF14.5
aF14.199999999999999
aF14.4
aF14.6
aF14
aF14.4
aF13.800000000000001
asS'http---ono.es'
p138
(lp139
F8.3000000000000007
aF5.5010000000000003
aF13
aF6.3879999999999999
aF11.699999999999999
aF5.524
aF10.6
aF7.4379999999999997
aF6.3289999999999997
aF6.8780000000000001
asS'http---deviantart.com'
p140
(lp141
F14.1
aF13.9
aF13.800000000000001
aF13.699999999999999
aF14
aF14.5
aF14.300000000000001
aF14.5
aF14.699999999999999
aF13.9
asS'http---privatehomeclips.com'
p142
(lp143
F14.4
aF14.9
aF16.300000000000001
aF13.800000000000001
aF15.9
aF15.9
aF13.800000000000001
aF14.5
aF14.4
aF14.300000000000001
asS'http---ivoox.com'
p144
(lp145
F9.25
aF13.9
aF5.5640000000000001
aF8.4619999999999997
aF13.9
aF12.5
aF15.199999999999999
aF6.6589999999999998
aF12.199999999999999
aF7.9720000000000004
asS'http---directrev.com'
p146
(lp147
F12.6
aF6.7290000000000001
aF6.3209999999999997
aF6.5069999999999997
aF10.5
aF11.800000000000001
aF14.699999999999999
aF6.7759999999999998
aF6.5289999999999999
aF9.0660000000000007
asS'http---aweber.com'
p148
(lp149
F13.699999999999999
aF12.699999999999999
aF12.300000000000001
aF10.1
aF13.199999999999999
aF11.6
aF15.4
aF14.1
aF13.199999999999999
aF14.5
asS'http---photobucket.com'
p150
(lp151
F13.800000000000001
aF13.699999999999999
aF14.1
aF14.300000000000001
aF15.4
aF14.300000000000001
aF13.699999999999999
aF14.9
aF13.199999999999999
aF14
asS'http---ovh.es'
p152
(lp153
F6.0670000000000002
aF11.6
aF12.199999999999999
aF6.5170000000000003
aF6.1840000000000002
aF6.1280000000000001
aF8.4179999999999993
aF8.6980000000000004
aF9.6780000000000008
aF5.3780000000000001
asS'http---apple.com'
p154
(lp155
F13
aF12.9
aF13.800000000000001
aF14.4
aF14.1
aF14
aF14.800000000000001
aF12.699999999999999
aF13.6
aF14.4
asS'http---bbc.com'
p156
(lp157
F9.4329999999999998
aF8.5299999999999994
aF13.1
aF13.199999999999999
aF10.1
aF7.8920000000000003
aF6.6379999999999999
aF12.5
aF8.3130000000000006
aF10.6
asS'http---vivirdelared.com'
p158
(lp159
F7.3609999999999998
aF11.9
aF5.9740000000000002
aF13.5
aF6.351
aF15.5
aF5.6100000000000003
aF7.6269999999999998
aF8.6229999999999993
aF10.699999999999999
asS'http---tronya.com'
p160
(lp161
F15.300000000000001
aF11.300000000000001
aF12
aF14.699999999999999
aF11.699999999999999
aF13.199999999999999
aF12.300000000000001
aF14.199999999999999
aF13.6
aF12.6
asS'http---nuevoloquo.com'
p162
(lp163
F9.0909999999999993
aF7.0110000000000001
aF6.3570000000000002
aF12.6
aF12.300000000000001
aF6.8460000000000001
aF12.199999999999999
aF6.2800000000000002
aF10
aF6.9800000000000004
asS'http---vozpopuli.com'
p164
(lp165
F12.699999999999999
aF14
aF14.4
aF13
aF14.300000000000001
aF11.6
aF12.6
aF16
aF13.6
aF13.699999999999999
asS'http---booking.com'
p166
(lp167
F8.1229999999999993
aF8.609
aF13.5
aF6.0640000000000001
aF9.0250000000000004
aF12.5
aF5.4900000000000002
aF8.3219999999999992
aF13.199999999999999
aF5.4050000000000002
asS'http---elplural.com'
p168
(lp169
F14.300000000000001
aF14.6
aF14.5
aF15.800000000000001
aF14.1
aF9.0329999999999995
aF12
aF14.699999999999999
aF14.5
aF12.6
asS'http---wanadoo.es'
p170
(lp171
F14.199999999999999
aF12.5
aF13.199999999999999
aF14.1
aF13.6
aF11
aF5.774
aF14.6
aF15.699999999999999
aF13.9
asS'http---rumbo.es'
p172
(lp173
F5.2229999999999999
aF10.5
aF7.8739999999999997
aF5.6079999999999997
aF8.4399999999999995
aF8.3409999999999993
aF6.5540000000000003
aF8.6189999999999998
aF6.8730000000000002
aF7.7279999999999998
asS'http---akamaihd.net'
p174
(lp175
F7.5419999999999998
aF12.5
aF7.9790000000000001
aF5.282
aF8.9710000000000001
aF7.9690000000000003
aF8.4339999999999993
aF11.699999999999999
aF5.923
aF11.9
asS'http---orange.es'
p176
(lp177
F10.699999999999999
aF9.9580000000000002
aF10.4
aF10.300000000000001
aF11.5
aF11.199999999999999
aF9.5559999999999992
aF11
aF11.199999999999999
aF11.5
asS'http---moz.com'
p178
(lp179
F9.2260000000000009
aF11.4
aF8.1180000000000003
aF9.9199999999999999
aF7.46
aF9.0660000000000007
aF10.6
aF9.5129999999999999
aF8.5250000000000004
aF14.6
asS'http---statcounter.com'
p180
(lp181
F10.1
aF11.699999999999999
aF14
aF5.9850000000000003
aF6.5300000000000002
aF5.8659999999999997
aF6.673
aF6.7510000000000003
aF6.8730000000000002
aF12.800000000000001
asS'http---ruralvia.com'
p182
(lp183
F11.800000000000001
aF12.699999999999999
aF6.1399999999999997
aF6.6500000000000004
aF7.4420000000000002
aF7.0380000000000003
aF6.7729999999999997
aF6.8470000000000004
aF5.6120000000000001
aF6.0309999999999997
asS'http---babylon.com'
p184
(lp185
F6.3289999999999997
aF6.2990000000000004
aF12.300000000000001
aF5.4809999999999999
aF6.2539999999999996
aF9.2769999999999992
aF13.5
aF6.7469999999999999
aF11.4
aF6.4269999999999996
asS'http---mega.co.nz'
p186
(lp187
F8.5589999999999993
aF6.3140000000000001
aF6.0339999999999998
aF6.681
aF10.1
aF7.3639999999999999
aF6.3460000000000001
aF13.800000000000001
aF5.6669999999999998
aF6.4080000000000004
asS'http---java.com'
p188
(lp189
F14.300000000000001
aF6.7990000000000004
aF5.7400000000000002
aF6.8540000000000001
aF5.593
aF11.1
aF7.4009999999999998
aF7.04
aF6.6989999999999998
aF12.300000000000001
asS'http---taringa.net'
p190
(lp191
F15
aF9.3109999999999999
aF12.4
aF16.399999999999999
aF8.0359999999999996
aF14.1
aF11.6
aF14.5
aF7.5380000000000003
aF12.6
asS'http---wikimedia.org'
p192
(lp193
F5.2880000000000003
aF11
aF11
aF5.4290000000000003
aF5.4530000000000003
aF7.0750000000000002
aF12.199999999999999
aF5.5199999999999996
aF5.5730000000000004
aF5.375
asS'http---godaddy.com'
p194
(lp195
F8.0079999999999991
aF7.7249999999999996
aF10.4
aF15.4
aF13.300000000000001
aF8.9900000000000002
aF8.3919999999999995
aF13.5
aF14.4
aF14.5
asS'http---naciodigital.cat'
p196
(lp197
F13.6
aF10.4
aF13.199999999999999
aF7.2389999999999999
aF14.300000000000001
aF15.699999999999999
aF13.9
aF11.199999999999999
aF13.9
aF12.1
asS'http---bbc.co.uk'
p198
(lp199
F9.4659999999999993
aF9.5779999999999994
aF13.1
aF13.1
aF15.1
aF13.4
aF7.1769999999999996
aF7.2119999999999997
aF9.5869999999999997
aF13.5
asS'http---invertia.com'
p200
(lp201
F14.6
aF14.5
aF13.199999999999999
aF14.5
aF14.6
aF14.4
aF14.6
aF14.199999999999999
aF12.300000000000001
aF15.9
asS'http---rankia.com'
p202
(lp203
F14.6
aF11
aF11.699999999999999
aF16
aF7.8010000000000002
aF14.4
aF14.800000000000001
aF14.1
aF13.199999999999999
aF11.800000000000001
asS'http---wikipedia.org'
p204
(lp205
F5.4509999999999996
aF6.6539999999999999
aF6.3579999999999997
aF6.1929999999999996
aF8.1560000000000006
aF11.6
aF5.609
aF6.6980000000000004
aF6.5300000000000002
aF6.3959999999999999
asS'http---allmyvideos.net'
p206
(lp207
F8.0609999999999999
aF8.2050000000000001
aF6.8540000000000001
aF6.8600000000000003
aF11.6
aF12.800000000000001
aF5.3029999999999999
aF5.4210000000000003
aF12.6
aF5.3449999999999998
asS'http---yonkis.com'
p208
(lp209
F14.5
aF10.1
aF12.199999999999999
aF7.226
aF7.2400000000000002
aF7.3200000000000003
aF12.6
aF14.4
aF7.2009999999999996
aF5.8840000000000003
asS'http---chuiso.com'
p210
(lp211
F8.3699999999999992
aF8.5839999999999996
aF6.5700000000000003
aF6.694
aF8.5009999999999994
aF5.6580000000000004
aF7.8789999999999996
aF9.3140000000000001
aF8.4060000000000006
aF5.6269999999999998
asS'http---adcash.com'
p212
(lp213
F12.800000000000001
aF14.1
aF14
aF15.4
aF12.699999999999999
aF14.1
aF14
aF10.699999999999999
aF14.4
aF12.1
asS'http---asos.com'
p214
(lp215
F11
aF10.699999999999999
aF9.5250000000000004
aF9.0739999999999998
aF10
aF9.1509999999999998
aF11.300000000000001
aF10.699999999999999
aF13.1
aF12.199999999999999
asS'http---outbrain.com'
p216
(lp217
F13.300000000000001
aF12.199999999999999
aF13.6
aF11
aF14.4
aF11.699999999999999
aF13.4
aF14.1
aF13.300000000000001
aF13.300000000000001
asS'http---upsocl.com'
p218
(lp219
F10.699999999999999
aF10.300000000000001
aF11.5
aF10.9
aF12.699999999999999
aF11.5
aF8.6419999999999995
aF10.4
aF11.300000000000001
aF12.5
asS'http---logitravel.com'
p220
(lp221
F14
aF13
aF12.300000000000001
aF14.300000000000001
aF11.699999999999999
aF12.199999999999999
aF14.699999999999999
aF8.4719999999999995
aF12.699999999999999
aF15.800000000000001
asS'http---xe.com'
p222
(lp223
F11.800000000000001
aF9.5310000000000006
aF10.4
aF8.0229999999999997
aF12.1
aF10.5
aF14.300000000000001
aF11
aF8.1419999999999995
aF13.4
asS'http---engadget.com'
p224
(lp225
F14.300000000000001
aF14.4
aF13.699999999999999
aF14.699999999999999
aF14.5
aF14.5
aF14
aF14.300000000000001
aF16.300000000000001
aF14.4
asS'http---microsoftonline.com'
p226
(lp227
F5.5309999999999997
aF8.1020000000000003
aF6.3479999999999999
aF6.9080000000000004
aF10.199999999999999
aF6.4610000000000003
aF8.8610000000000007
aF8.8089999999999993
aF9.8719999999999999
aF9.3200000000000003
asS'http---toroporno.com'
p228
(lp229
F9.1340000000000003
aF8.8219999999999992
aF7.5490000000000004
aF10.699999999999999
aF9.3330000000000002
aF11.6
aF11.1
aF14.5
aF12.6
aF6.2080000000000002
asS'http---subtitulos.es'
p230
(lp231
F11.6
aF13.699999999999999
aF14.1
aF12
aF12.6
aF14.6
aF8.9700000000000006
aF12.6
aF7.2480000000000002
aF9.7149999999999999
asS'http---diariovasco.com'
p232
(lp233
F6.758
aF7.9039999999999999
aF8.5640000000000001
aF10.6
aF9.0259999999999998
aF12.5
aF11.699999999999999
aF10.9
aF12.800000000000001
aF10.199999999999999
asS'http---ara.cat'
p234
(lp235
F9.5190000000000001
aF15.4
aF9.3330000000000002
aF8.7390000000000008
aF11.5
aF13.199999999999999
aF12.6
aF12.300000000000001
aF7.6050000000000004
aF9.1229999999999993
asS'http---shutterstock.com'
p236
(lp237
F8.8079999999999998
aF14.1
aF9.7270000000000003
aF15.4
aF10.9
aF11.6
aF15.1
aF12.699999999999999
aF8.9879999999999995
aF14.300000000000001
asS'http---snapdo.com'
p238
(lp239
F12.5
aF5.5670000000000002
aF6.3890000000000002
aF6.7370000000000001
aF14.300000000000001
aF6.9829999999999997
aF6.7309999999999999
aF11.1
aF5.7889999999999997
aF6.6150000000000002
asS'http---bestusefuldownloads.com'
p240
(lp241
F9.6460000000000008
aF7.2380000000000004
aF5.508
aF6.8760000000000003
aF7.399
aF8.6219999999999999
aF7.3380000000000001
aF9.0099999999999998
aF7.6109999999999998
aF7.1299999999999999
asS'http---todohdtv.com'
p242
(lp243
F14.1
aF13.9
aF13.9
aF14.1
aF14.4
aF15.199999999999999
aF14
aF14.5
aF14.4
aF14.199999999999999
asS'http---issuu.com'
p244
(lp245
F14.199999999999999
aF13.800000000000001
aF10.9
aF9.8320000000000007
aF9.7710000000000008
aF14.699999999999999
aF9.6270000000000007
aF9.7140000000000004
aF9.3710000000000004
aF12.6
asS'http---williamhill.es'
p246
(lp247
F6.1879999999999997
aF10.6
aF6.4770000000000003
aF7.9889999999999999
aF13.300000000000001
aF14.5
aF11.800000000000001
aF13.800000000000001
aF11.1
aF14.5
asS'http---heraldo.es'
p248
(lp249
F14.5
aF13.800000000000001
aF9.7650000000000006
aF14.1
aF13.699999999999999
aF13.1
aF13.9
aF14.199999999999999
aF14.1
aF14.4
asS'http---avg.com'
p250
(lp251
F8.2639999999999993
aF13.4
aF14.5
aF12.9
aF10.4
aF12
aF14.4
aF11.9
aF8.5190000000000001
aF10.1
asS'http---decathlon.es'
p252
(lp253
F9.7729999999999997
aF10.6
aF13.300000000000001
aF8.7360000000000007
aF12.5
aF10.199999999999999
aF11.199999999999999
aF8.7070000000000007
aF8.7789999999999999
aF8.3740000000000006
asS'http---kioskea.net'
p254
(lp255
F14.1
aF14.1
aF16.399999999999999
aF15.699999999999999
aF14.699999999999999
aF14.300000000000001
aF15.300000000000001
aF12.9
aF16.5
aF15.6
asS'http---t.co'
p256
(lp257
F6.3170000000000002
aF6.7699999999999996
aF9.4130000000000003
aF9.1140000000000008
aF7.9450000000000003
aF5.7359999999999998
aF5.6429999999999998
aF7.4930000000000003
aF8.8379999999999992
aF8.375
asS'http---forosdelweb.com'
p258
(lp259
F15.6
aF8.9239999999999995
aF6.3490000000000002
aF13.300000000000001
aF10.4
aF7.0659999999999998
aF5.673
aF12.199999999999999
aF5.391
aF5.7690000000000001
asS'http---elmundo.es'
p260
(lp261
F15.9
aF13.800000000000001
aF14.699999999999999
aF14.9
aF14.800000000000001
aF14.4
aF13.199999999999999
aF13.6
aF12.6
aF13.5
asS'http---mastopofertas.com'
p262
(lp263
F7.9969999999999999
aF7.7190000000000003
aF8.2360000000000007
aF6.258
aF6.2800000000000002
aF6.3879999999999999
aF8.5410000000000004
aF5.5149999999999997
aF5.6909999999999998
aF8.8919999999999995
asS'http---genbeta.com'
p264
(lp265
F9.2919999999999998
aF9.2439999999999998
aF10.9
aF10.1
aF9
aF12
aF9.923
aF10.300000000000001
aF8.5879999999999992
aF10.1
asS'http---ideal.es'
p266
(lp267
F7.024
aF9.0839999999999996
aF12.199999999999999
aF10.199999999999999
aF13.300000000000001
aF14.699999999999999
aF7.8810000000000002
aF7.4779999999999998
aF13.1
aF12.4
asS'http---chaturbate.com'
p268
(lp269
F9.2080000000000002
aF14.6
aF15.699999999999999
aF13.4
aF10.5
aF11.1
aF9.5999999999999996
aF10.4
aF11.9
aF12.699999999999999
asS'http---bbva.es'
p270
(lp271
F9.2289999999999992
aF13.1
aF8.8170000000000002
aF11.800000000000001
aF14
aF13.199999999999999
aF8.2650000000000006
aF13.300000000000001
aF13
aF9.8119999999999994
asS'http---pornhub.com'
p272
(lp273
F12.199999999999999
aF12.699999999999999
aF6.6449999999999996
aF5.3200000000000003
aF5.4690000000000003
aF12.1
aF5.4859999999999998
aF6.6559999999999997
aF12.4
aF5.6479999999999997
asS'http---xtec.cat'
p274
(lp275
F6.5540000000000003
aF6.226
aF6.5519999999999996
aF13
aF5.5069999999999997
aF15.300000000000001
aF6.2380000000000004
aF6.7489999999999997
aF11.5
aF9.8989999999999991
asS'http---php.net'
p276
(lp277
F11.199999999999999
aF9.0079999999999991
aF8.9039999999999999
aF8.5700000000000003
aF8.4969999999999999
aF7.1589999999999998
aF11.699999999999999
aF10.300000000000001
aF10.5
aF8.8819999999999997
asS'http---sportium.es'
p278
(lp279
F14.4
aF14.4
aF14.6
aF14.199999999999999
aF14.4
aF13.800000000000001
aF13.9
aF14.4
aF14.300000000000001
aF14.5
asS'http---m2newmedia.com'
p280
(lp281
F11.6
aF11.4
aF5.8479999999999999
aF11.699999999999999
aF10.199999999999999
aF11
aF14.4
aF5.484
aF11.9
aF11.5
asS'http---series.ly'
p282
(lp283
F11.4
aF12.699999999999999
aF14.699999999999999
aF9.5939999999999994
aF6.2460000000000004
aF8.5549999999999997
aF8.9469999999999992
aF10.300000000000001
aF7.8600000000000003
aF5.7480000000000002
asS'http---vertele.com'
p284
(lp285
F14.5
aF14.5
aF14.699999999999999
aF14.199999999999999
aF14.6
aF14.5
aF14.6
aF14.6
aF14.800000000000001
aF14.4
asS'http---blogger.com'
p286
(lp287
F5.2309999999999999
aF5.6459999999999999
aF12.4
aF5.4950000000000001
aF7.7750000000000004
aF13.4
aF7.7789999999999999
aF14.1
aF5.907
aF5.2309999999999999
asS'http---meetup.com'
p288
(lp289
F13.9
aF5.4169999999999998
aF7.0759999999999996
aF7.4870000000000001
aF8.3620000000000001
aF8.2859999999999996
aF6.6909999999999998
aF6.7850000000000001
aF8.9819999999999993
aF11.199999999999999
asS'http---joomla.org'
p290
(lp291
F7.9740000000000002
aF10.6
aF13.199999999999999
aF7.9000000000000004
aF11.4
aF11.800000000000001
aF15.5
aF15
aF13.1
aF11.800000000000001
asS'http---about.com'
p292
(lp293
F5.7220000000000004
aF5.7759999999999998
aF11.800000000000001
aF7.6239999999999997
aF7.3739999999999997
aF7.0270000000000001
aF8.4990000000000006
aF9.4589999999999996
aF9.5679999999999996
aF8.4969999999999999
asS'http---thefreedictionary.com'
p294
(lp295
F9.0600000000000005
aF6.3899999999999997
aF8.6760000000000002
aF12.800000000000001
aF6.3620000000000001
aF13.199999999999999
aF13.5
aF6.4640000000000004
aF14.800000000000001
aF6.7800000000000002
asS'http---casadellibro.com'
p296
(lp297
F14.4
aF14.1
aF14.4
aF16.199999999999999
aF13.699999999999999
aF16.300000000000001
aF15.9
aF15.5
aF13.4
aF15.4
asS'http---flickr.com'
p298
(lp299
F14.6
aF12.199999999999999
aF15.6
aF15.800000000000001
aF15.800000000000001
aF14.300000000000001
aF14.800000000000001
aF12.699999999999999
aF12.699999999999999
aF14.4
asS'http---redtube.com'
p300
(lp301
F11.699999999999999
aF8.0760000000000005
aF6.7439999999999998
aF7.4420000000000002
aF8.3230000000000004
aF11.699999999999999
aF8.2390000000000008
aF9.3699999999999992
aF7.0300000000000002
aF9.923
asS'http---enlacespepito.com'
p302
(lp303
F9.2400000000000002
aF8.516
aF9.1750000000000007
aF8.4320000000000004
aF8.1430000000000007
aF5.5529999999999999
aF7.8979999999999997
aF4.5979999999999999
aF5.3049999999999997
asS'http---bancsabadell.com'
p304
(lp305
F7.7149999999999999
aF10.4
aF14.4
aF11.199999999999999
aF13.9
aF11.9
aF13.1
aF11
aF13.9
aF15.300000000000001
asS'http---wordpress.com'
p306
(lp307
F6.5179999999999998
aF8.0909999999999993
aF5.2690000000000001
aF8.1660000000000004
aF6.6509999999999998
aF11.5
aF7.101
aF14.1
aF7.8289999999999997
aF10.699999999999999
asS'http---bancopopular.es'
p308
(lp309
F5.585
aF5.6550000000000002
aF5.6559999999999997
aF5.4640000000000004
aF5.5529999999999999
aF5.4669999999999996
aF5.468
aF5.3970000000000002
aF5.6859999999999999
aF5.423
asS'http---amazon.com'
p310
(lp311
F11.800000000000001
aF8.4390000000000001
aF10.800000000000001
aF10.800000000000001
aF10.699999999999999
aF9.202
aF10.4
aF11.199999999999999
aF8.6940000000000008
aF9.3979999999999997
asS'http---elcomercio.es'
p312
(lp313
F12.4
aF8.7240000000000002
aF11.4
aF13.199999999999999
aF14
aF12.800000000000001
aF15.300000000000001
aF14.6
aF7.3179999999999996
aF10.1
asS'http---spartoo.es'
p314
(lp315
F6.3300000000000001
aF5.3099999999999996
aF8.3770000000000007
aF10.9
aF6.5780000000000003
aF6.3529999999999998
aF5.298
aF6.8170000000000002
aF13
aF5.1909999999999998
asS'http---hogarutil.com'
p316
(lp317
F14
aF14.6
aF14.300000000000001
aF14.699999999999999
aF14.199999999999999
aF14.1
aF13.9
aF14.300000000000001
aF14.5
aF14.300000000000001
asS'http---ryanair.com'
p318
(lp319
F10.9
aF11.800000000000001
aF10.5
aF10.699999999999999
aF12.1
aF12.9
aF10.199999999999999
aF11.4
aF11.4
aF10.6
asS'http---ebay.co.uk'
p320
(lp321
F11.5
aF8.5289999999999999
aF8.6150000000000002
aF9.8460000000000001
aF6.3689999999999998
aF5.6950000000000003
aF6.7839999999999998
aF6.2009999999999996
aF13.800000000000001
aF13.5
asS'http---cuatro.com'
p322
(lp323
F14.5
aF14.300000000000001
aF12.6
aF13.9
aF13.9
aF14.199999999999999
aF13.6
aF14.5
aF14.6
aF14.5
asS'http---amazon.es'
p324
(lp325
F11.1
aF6.2709999999999999
aF9.1400000000000006
aF6.7329999999999997
aF6.1449999999999996
aF6.843
aF7.1059999999999999
aF9.468
aF9.1120000000000001
aF5.2549999999999999
asS'http---lasexta.com'
p326
(lp327
F6.8899999999999997
aF15.699999999999999
aF11.199999999999999
aF6.1970000000000001
aF14.699999999999999
aF14.1
aF11.199999999999999
aF5.4589999999999996
aF15.9
aF15.199999999999999
asS'http---fnac.es'
p328
(lp329
F14.5
aF14.4
aF16.199999999999999
aF14.6
aF16.199999999999999
aF14.6
aF16.300000000000001
aF14.4
aF14.5
aF13.699999999999999
asS'http---ikea.com'
p330
(lp331
F7.3300000000000001
aF5.1139999999999999
aF8.0440000000000005
aF5.258
aF5.7720000000000002
aF11
aF5.3579999999999997
aF5.3220000000000001
aF5.4349999999999996
aF13.6
asS'http---list-manage.com'
p332
(lp333
F5.4749999999999996
aF15.4
aF11.4
aF5.3369999999999997
aF5.7119999999999997
aF9.5570000000000004
aF6.4329999999999998
aF11.699999999999999
aF10.5
aF6.0270000000000001
asS'http---resultados-futbol.com'
p334
(lp335
F14.199999999999999
aF13.699999999999999
aF13.9
aF14.199999999999999
aF14.300000000000001
aF14.300000000000001
aF14.199999999999999
aF13
aF13.800000000000001
aF14
asS'http---clixsense.com'
p336
(lp337
F9.7100000000000009
aF5.5140000000000002
aF6.0330000000000004
aF7.5019999999999998
aF12.4
aF10.800000000000001
aF8.9280000000000008
aF9.1969999999999992
aF7.6779999999999999
aF6.0199999999999996
asS'http---clkmon.com'
p338
(lp339
F7.5919999999999996
aF9.2159999999999993
aF7.0750000000000002
aF8.1229999999999993
aF10
aF6.7859999999999996
aF6.2530000000000001
aF5.2039999999999997
aF6.258
aF5.9100000000000001
asS'http---acb.com'
p340
(lp341
F14.699999999999999
aF14.5
aF14.5
aF14
aF14.300000000000001
aF14.1
aF14.4
aF16.699999999999999
aF14.4
aF14.4
asS'http---adbooth.com'
p342
(lp343
F11.699999999999999
aF10.1
aF14.6
aF13.199999999999999
aF14.800000000000001
aF13.300000000000001
aF14.4
aF14.5
aF15.800000000000001
aF14.300000000000001
asS'http---correos.es'
p344
(lp345
F8.3719999999999999
aF5.9320000000000004
aF7.899
aF12.199999999999999
aF6.2350000000000003
aF10.800000000000001
aF10.5
aF10.199999999999999
aF6.4880000000000004
aF8.6639999999999997
asS'http---aemet.es'
p346
(lp347
F12.6
aF5.2910000000000004
aF5.2240000000000002
aF8.8379999999999992
aF5.3090000000000002
aF12.5
aF5.4690000000000003
aF13
aF6.274
aF7.9619999999999997
asS'http---loteriasyapuestas.es'
p348
(lp349
F6.1340000000000003
aF5.524
aF10.1
aF6.9340000000000002
aF5.3479999999999999
aF8.6669999999999998
aF5.883
aF11.199999999999999
aF6.8230000000000004
aF13.9
asS'http---ask.com'
p350
(lp351
F6.5899999999999999
aF9.8650000000000002
aF8.6940000000000008
aF12.199999999999999
aF6.7300000000000004
aF6.4610000000000003
aF8.1270000000000007
aF6.6609999999999996
aF13.5
aF5.3769999999999998
asS'http---agenciatributaria.gob.es'
p352
(lp353
F5.3600000000000003
aF9.4109999999999996
aF12.4
aF5.1749999999999998
aF5.2880000000000003
aF12.9
aF9.9900000000000002
aF15.199999999999999
aF5.2569999999999997
aF12.5
asS'http---petardas.com'
p354
(lp355
F5.6360000000000001
aF6.1799999999999997
aF7.1740000000000004
aF7.883
aF6.7690000000000001
aF7.8339999999999996
aF6.3710000000000004
aF5.4809999999999999
aF8.8239999999999998
aF6.8559999999999999
asS'http---cadenaser.com'
p356
(lp357
F14.4
aF13.9
aF14.5
aF14.6
aF14.300000000000001
aF13.9
aF14.300000000000001
aF14.4
aF13.800000000000001
aF14.199999999999999
asS'http---bwin.es'
p358
(lp359
F15.5
aF13.6
aF14.1
aF15.800000000000001
aF10.5
aF16.300000000000001
aF14.4
aF14.199999999999999
aF12.5
aF13
asS'http---tv3.cat'
p360
(lp361
F11.800000000000001
aF13
aF9.4139999999999997
aF11.6
aF9.657
aF12.199999999999999
aF11.800000000000001
aF12.199999999999999
aF10.9
aF9.1549999999999994
asS'http---vk.com'
p362
(lp363
F8.4000000000000004
aF5.4459999999999997
aF7.3099999999999996
aF5.6440000000000001
aF5.516
aF6.1470000000000002
aF5.6310000000000002
aF9.218
aF5.1580000000000004
aF9.6890000000000001
asS'http---comunio.es'
p364
(lp365
F6.093
aF11.199999999999999
aF9.5600000000000005
aF12.1
aF14.300000000000001
aF13.1
aF7.0289999999999999
aF6.0609999999999999
aF6.7629999999999999
aF9.8629999999999995
asS'http---consumer.es'
p366
(lp367
F13.9
aF13.699999999999999
aF14.4
aF14.5
aF15.4
aF13.1
aF14
aF14.300000000000001
aF14.300000000000001
aF13.699999999999999
asS'http---cam4.es'
p368
(lp369
F13.9
aF5.5750000000000002
aF14.5
aF11.5
aF11.300000000000001
aF13.4
aF13.300000000000001
aF5.6269999999999998
aF12.6
aF10.1
asS'http---888poker.es'
p370
(lp371
F8.7780000000000005
aF7.1840000000000002
aF6.3440000000000003
aF8.3699999999999992
aF8.3520000000000003
aF5.9930000000000003
aF9.8239999999999998
aF9.9209999999999994
aF6.1260000000000003
aF6.1470000000000002
asS'http---bp.blogspot.com'
p372
(lp373
F12.699999999999999
aF6.3209999999999997
aF9.6940000000000008
aF5.4729999999999999
aF11.5
aF8.8520000000000003
aF5.5209999999999999
aF5.2779999999999996
aF12
aF6.0309999999999997
asS'http---prnoticias.com'
p374
(lp375
F14.800000000000001
aF15.9
aF14.800000000000001
aF14.800000000000001
aF13.800000000000001
aF14.300000000000001
aF14.5
aF14.800000000000001
aF12.9
aF14.800000000000001
asS'http---wikiloc.com'
p376
(lp377
F9.8689999999999998
aF16
aF14.300000000000001
aF10.5
aF13.300000000000001
aF14.300000000000001
aF14.199999999999999
aF14.300000000000001
aF9.1020000000000003
aF7.9199999999999999
asS'http---memedeportes.com'
p378
(lp379
F14.5
aF15.6
aF15.9
aF15.1
aF14.9
aF14.9
aF15.6
aF14.6
aF15.300000000000001
aF16.399999999999999
asS'http---huffingtonpost.es'
p380
(lp381
F13.6
aF14.800000000000001
aF13.5
aF12.5
aF14.9
aF13.699999999999999
aF13.4
aF14.9
aF12.9
aF13
asS'http---files.wordpress.com'
p382
(lp383
F6.6909999999999998
aF13.5
aF5.7779999999999996
aF5.6779999999999999
aF5.5970000000000004
aF12.5
aF5.4160000000000004
aF11.6
aF6.4260000000000002
aF5.4550000000000001
asS'http---buyvip.com'
p384
(lp385
F14.5
aF10.4
aF6.4720000000000004
aF6.1470000000000002
aF6.234
aF12.9
aF6.4699999999999998
aF5.6340000000000003
aF5.5570000000000004
aF5.6280000000000001
asS'http---bitly.com'
p386
(lp387
F10.699999999999999
aF7.3579999999999997
aF12.5
aF13.699999999999999
aF15.6
aF16
aF10.9
aF14.5
aF15.300000000000001
aF11.9
asS'http---dropbox.com'
p388
(lp389
F10.199999999999999
aF14.5
aF15.699999999999999
aF15.9
aF12.800000000000001
aF8.8019999999999996
aF12.800000000000001
aF16
aF13.1
aF12.699999999999999
asS'http---canadaalltax.com'
p390
(lp391
F6.0510000000000002
aF9.7989999999999995
aF7.0190000000000001
aF14.199999999999999
aF12.699999999999999
aF6.181
aF7.3689999999999998
aF6.9610000000000003
aF7.3170000000000002
aF6.8879999999999999
asS'http---paypal.com'
p392
(lp393
F10.1
aF8.8510000000000009
aF8.8109999999999999
aF10.5
aF9
aF11.5
aF9.7799999999999994
aF9.2959999999999994
aF9.2859999999999996
aF9.1359999999999992
asS'http---elle.es'
p394
(lp395
F5.2460000000000004
aF14.199999999999999
aF8.3949999999999996
aF6.1890000000000001
aF9.1590000000000007
aF5.2350000000000003
aF6.2140000000000004
aF5.6959999999999997
aF8.6690000000000005
aF9.2420000000000009
asS'http---goodgamestudios.com'
p396
(lp397
F6.0609999999999999
aF11.9
aF6.548
aF14.300000000000001
aF6.5519999999999996
aF5.7910000000000004
aF11.199999999999999
aF13.6
aF5.3959999999999999
aF6.6390000000000002
asS'http---dondominio.com'
p398
(lp399
F16.100000000000001
aF11.4
aF14.4
aF15.6
aF12.4
aF13.5
aF13.800000000000001
aF13.4
aF14.1
aF13.800000000000001
asS'http---lavanguardia.com'
p400
(lp401
F14.300000000000001
aF14.4
aF14.5
aF15.5
aF14.5
aF14.5
aF14.5
aF14.199999999999999
aF14.5
aF14.4
asS'http---unetepubli.com'
p402
(lp403
F5.2599999999999998
aF5.3390000000000004
aF5.3600000000000003
aF6.6870000000000003
aF5.3319999999999999
aF5.601
aF5.3250000000000002
aF7.1260000000000003
aF6.7450000000000001
aF6.3319999999999999
asS'http---facilisimo.com'
p404
(lp405
F5.3120000000000003
aF12.9
aF5.21
aF5.1699999999999999
aF5.6849999999999996
aF5.1680000000000001
aF12.699999999999999
aF11.199999999999999
aF12.699999999999999
aF5.8799999999999999
asS'http---neobux.com'
p406
(lp407
F11.199999999999999
aF10.1
aF9.3130000000000006
aF8.8049999999999997
aF5.1619999999999999
aF9.7989999999999995
aF6.8650000000000002
aF15.300000000000001
aF11.9
aF6.484
asS'http---cuantarazon.com'
p408
(lp409
F14.300000000000001
aF13.800000000000001
aF13.199999999999999
aF12.800000000000001
aF13.199999999999999
aF14.300000000000001
aF14.300000000000001
aF13.699999999999999
aF14.300000000000001
aF14.800000000000001
asS'http---dailymail.co.uk'
p410
(lp411
F14.800000000000001
aF15.9
aF14.4
aF16.100000000000001
aF13.1
aF14.1
aF14
aF15.4
aF14
aF14.5
asS'http---cope.es'
p412
(lp413
F15.699999999999999
aF14.300000000000001
aF13.4
aF14.699999999999999
aF14.699999999999999
aF14.4
aF14.5
aF14.6
aF14.6
aF14.800000000000001
asS'http---linkedin.com'
p414
(lp415
F7.0389999999999997
aF13.199999999999999
aF9.952
aF6.484
aF12.6
aF13.9
aF6.4509999999999996
aF6.9160000000000004
aF7.2949999999999999
aF7.3220000000000001
asS'http---trklnks.com'
p416
(lp417
F9.7590000000000003
aF6.141
aF8.9380000000000006
aF7.649
aF6.2690000000000001
aF12.6
aF8.6549999999999994
aF9.093
aF12
aF8.8640000000000008
asS'http---zeobit.com'
p418
(lp419
F5.5609999999999999
aF6.2140000000000004
aF6.3319999999999999
aF5.907
aF5.2160000000000002
aF10.5
aF8.6890000000000001
aF5.8940000000000001
aF8.6750000000000007
aF8.1120000000000001
asS'http---youtube.com'
p420
(lp421
F7.5170000000000003
aF7.1950000000000003
aF7.8070000000000004
aF13
aF13.199999999999999
aF7.1189999999999998
aF5.4180000000000001
aF12.6
aF6.8369999999999997
aF14.6
asS'http---marca.com'
p422
(lp423
F9.5169999999999995
aF7.8310000000000004
aF6.4119999999999999
aF7.6390000000000002
aF15.5
aF12.4
aF8.202
aF8.8170000000000002
aF13.199999999999999
aF13.5
asS'http---mediavida.com'
p424
(lp425
F6.2720000000000002
aF6.3129999999999997
aF8.8209999999999997
aF9.2699999999999996
aF7.351
aF10.300000000000001
aF9.9870000000000001
aF13.9
aF6.3559999999999999
aF6.0620000000000003
asS'http---fotocasa.es'
p426
(lp427
F5.492
aF5.3300000000000001
aF5.593
aF5.3360000000000003
aF11.6
aF11.5
aF12.4
aF5.3250000000000002
aF12.199999999999999
aF12
asS'http---newpct.com'
p428
(lp429
F13.9
aF14.699999999999999
aF14.4
aF14.4
aF14.1
aF14.4
aF14.300000000000001
aF14.6
aF14.4
aF14.800000000000001
asS'http---buzzfeed.com'
p430
(lp431
F14.300000000000001
aF14.300000000000001
aF14.1
aF14.4
aF14.5
aF14.4
aF13.800000000000001
aF12.1
aF14.5
aF15.6
asS'http---bitshare.com'
p432
(lp433
F7.548
aF5.3819999999999997
aF6.9000000000000004
aF15.5
aF5.4690000000000003
aF5.2610000000000001
aF6.9109999999999996
aF7.4219999999999997
aF6.7969999999999997
aF5.4809999999999999
asS'http---renfe.es'
p434
(lp435
F6.5220000000000002
aF10.699999999999999
aF13.699999999999999
aF6.5190000000000001
aF5.46
aF6.266
aF8.7840000000000007
aF6.4889999999999999
aF5.2969999999999997
aF10.199999999999999
asS'http---bet365.com'
p436
(lp437
F10.1
aF9.5180000000000007
aF10.5
aF11.300000000000001
aF13
aF10.199999999999999
aF10.6
aF11.699999999999999
aF11.199999999999999
aF9.9570000000000007
asS'http---ucm.es'
p438
(lp439
F10.6
aF11.6
aF11.1
aF7.5839999999999996
aF7.6520000000000001
aF6.984
aF11.6
aF8.8879999999999999
aF12.4
aF7.1349999999999998
asS'http---telecinco.es'
p440
(lp441
F14.800000000000001
aF13.9
aF14.6
aF14.300000000000001
aF14.6
aF14.300000000000001
aF14.6
aF14.5
aF14.4
aF14.9
asS'http---openbank.es'
p442
(lp443
F5.9690000000000003
aF7.9660000000000002
aF11.699999999999999
aF11.800000000000001
aF7.9950000000000001
aF6.3419999999999996
aF6.6130000000000004
aF6.2699999999999996
aF10
aF6.6269999999999998
asS'http---juntadeandalucia.es'
p444
(lp445
F6.2469999999999999
aF5.2779999999999996
aF10.1
aF11.6
aF10.1
aF6.6210000000000004
aF8.5670000000000002
aF6.3200000000000003
aF6.8529999999999998
aF11.199999999999999
asS'http---ask.fm'
p446
(lp447
F6.9660000000000002
aF8.0609999999999999
aF5.6840000000000002
aF5.6299999999999999
aF6.8520000000000003
aF11.1
aF6.6630000000000003
aF5.6669999999999998
aF5.6100000000000003
aF10.300000000000001
asS'http---goo.gl'
p448
(lp449
F9.9619999999999997
aF6.8159999999999998
aF6.673
aF6.8769999999999998
aF6.8460000000000001
aF7.3659999999999997
aF6.5960000000000001
aF7.3140000000000001
aF6.8250000000000002
aF7.9249999999999998
asS'http---gmail.com'
p450
(lp451
F6.3419999999999996
aF6.7030000000000003
aF5.4539999999999997
aF6.8399999999999999
aF7.2030000000000003
aF6.8860000000000001
aF6.9619999999999997
aF12
aF14.699999999999999
aF13.4
asS'http---exvagos.com'
p452
(lp453
F0
aF0
aF0
aF0
aF0
aF0
aF0
aF0
aF0
aF0
asS'http---youjizz.com'
p454
(lp455
F9.0050000000000008
aF12.5
aF8.8049999999999997
aF7.7999999999999998
aF9.6530000000000005
aF5.3609999999999998
aF5.5640000000000001
aF14.699999999999999
aF5.3819999999999997
aF6.6829999999999998
asS'http---google.de'
p456
(lp457
F5.4939999999999998
aF5.3710000000000004
aF5.2729999999999997
aF6.5990000000000002
aF5.4139999999999997
aF7.6589999999999998
aF12.699999999999999
aF6.609
aF5.3600000000000003
aF10.4
asS'http---mozilla.org'
p458
(lp459
F9.7040000000000006
aF8.9280000000000008
aF9.0489999999999995
aF12.800000000000001
aF6.8730000000000002
aF10.199999999999999
aF10.699999999999999
aF6.319
aF14.5
aF9.1509999999999998
asS'http---webssearches.com'
p460
(lp461
F5.5469999999999997
aF10.4
aF6.2359999999999998
aF9.2889999999999997
aF10.6
aF8.7409999999999997
aF6.8159999999999998
aF6.9710000000000001
aF6.415
aF8.6679999999999993
asS'http---cnn.com'
p462
(lp463
F15.6
aF9.4109999999999996
aF6.327
aF10.6
aF8.0670000000000002
aF10.699999999999999
aF8.4930000000000003
aF13.9
aF6.2770000000000001
aF13.4
asS'http---playgroundmag.net'
p464
(lp465
F14.300000000000001
aF16.100000000000001
aF14.699999999999999
aF14.5
aF14.5
aF14.4
aF14.699999999999999
aF14.199999999999999
aF14.1
aF12.9
asS'http---europa.eu'
p466
(lp467
F12.4
aF5.3680000000000003
aF13.4
aF8.3759999999999994
aF12.6
aF5.4710000000000001
aF13.199999999999999
aF5.3179999999999996
aF5.4249999999999998
aF5.5339999999999998
asS'http---pinterest.com'
p468
(lp469
F13
aF12.6
aF8.3859999999999992
aF8.6769999999999996
aF9.2910000000000004
aF9.2170000000000005
aF8.5109999999999992
aF9.0180000000000007
aF9.6940000000000008
aF11.199999999999999
asS'http---streamcloud.eu'
p470
(lp471
F14.1
aF5.8209999999999997
aF7.3959999999999999
aF9.4060000000000006
aF10.1
aF13.800000000000001
aF7.5129999999999999
aF8.9410000000000007
aF6.8209999999999997
aF5.3390000000000004
asS'http---meetic.es'
p472
(lp473
F14.199999999999999
aF15
aF12.1
aF13.4
aF11
aF14
aF13.9
aF12.5
aF10.699999999999999
aF15.699999999999999
asS'http---jazztel.com'
p474
(lp475
F15.6
aF14.9
aF9.3829999999999991
aF12.5
aF14.699999999999999
aF12.9
aF12.1
aF15.800000000000001
aF12.4
aF15.6
asS'http---berserk.es'
p476
(lp477
F6.7439999999999998
aF5.4160000000000004
aF11
aF8.5259999999999998
aF6.7140000000000004
aF5.4390000000000001
aF6.6849999999999996
aF6.7750000000000004
aF5.2329999999999997
aF8.3789999999999996
asS'http---superdeporte.com'
p478
(lp479
F14.4
aF14.199999999999999
aF14.4
aF14.6
aF14.5
aF14.300000000000001
aF14.1
aF13.800000000000001
aF14.5
aF14
asS'http---twitter.com'
p480
(lp481
F10.199999999999999
aF15.300000000000001
aF12.6
aF14.699999999999999
aF14.199999999999999
aF14.1
aF9.5090000000000003
aF9.8849999999999998
aF9.5890000000000004
aF7.8840000000000003
asS'http---wordreference.com'
p482
(lp483
F9.1319999999999997
aF13.6
aF6.1429999999999998
aF15.4
aF5.399
aF5.9470000000000001
aF6.6139999999999999
aF8.0500000000000007
aF6.3559999999999999
aF6.5830000000000002
asS'http---uncomo.com'
p484
(lp485
F12.9
aF11.6
aF13.4
aF10.5
aF7.125
aF10.199999999999999
aF13.699999999999999
aF10.800000000000001
aF14.4
aF14.5
asS'http---bankia.es'
p486
(lp487
F7.1609999999999996
aF8.2490000000000006
aF8.1310000000000002
aF9.7449999999999992
aF7.3849999999999998
aF5.6959999999999997
aF6.6749999999999998
aF13.9
aF9.1370000000000005
aF6.3879999999999999
asS'http---edreams.es'
p488
(lp489
F11.1
aF10.199999999999999
aF5.4279999999999999
aF13.1
aF9.2430000000000003
aF6.6980000000000004
aF7.1100000000000003
aF10.800000000000001
aF6.1799999999999997
aF6.1120000000000001
asS'http---y8.com'
p490
(lp491
F14.5
aF13.5
aF13.199999999999999
aF14.300000000000001
aF13.1
aF14.5
aF13
aF14.4
aF14.5
aF14.699999999999999
asS'http---eazel.com'
p492
(lp493
F11.1
aF14.6
aF9.0419999999999998
aF12.1
aF9.1470000000000002
aF11.199999999999999
aF10.199999999999999
aF12.1
aF14.6
aF10.699999999999999
asS'http---zopim.com'
p494
(lp495
F14.6
aF14.5
aF15.4
aF12.800000000000001
aF14.4
aF14.6
aF14.699999999999999
aF14.4
aF16.199999999999999
aF14.5
asS'http---madrid.org'
p496
(lp497
F12.4
aF12.300000000000001
aF12.199999999999999
aF12
aF12.699999999999999
aF4.8760000000000003
aF12.300000000000001
aF12.699999999999999
aF11.1
aF12
asS'http---futbolme.com'
p498
(lp499
F12.4
aF12.800000000000001
aF13
aF10.6
aF11.9
aF13.1
aF10.1
aF14.300000000000001
aF9.8859999999999992
aF10.4
asS'http---yahoo.com'
p500
(lp501
F11
aF11.1
aF12.300000000000001
aF14.4
aF11.4
aF11
aF10.9
aF10.1
aF10.800000000000001
aF10.4
asS'http---carrefour.es'
p502
(lp503
F7.1310000000000002
aF5.5279999999999996
aF10.800000000000001
aF13
aF14.6
aF13.699999999999999
aF9.9800000000000004
aF12.800000000000001
aF7.492
aF7.133
asS'http---feedly.com'
p504
(lp505
F12.300000000000001
aF5.5419999999999998
aF9.093
aF10.9
aF5.8369999999999997
aF12.199999999999999
aF5.9649999999999999
aF10.9
aF12.4
aF9.282
asS'http---dx.com'
p506
(lp507
F13.199999999999999
aF13.1
aF14.1
aF13.9
aF11.6
aF13
aF13.6
aF13
aF13
aF11.5
asS'http---todocoleccion.net'
p508
(lp509
F7.5919999999999996
aF13.300000000000001
aF6.5780000000000003
aF11
aF7.4340000000000002
aF15.1
aF8.9429999999999996
aF6.4470000000000001
aF10.6
aF7.702
asS'http---amazon.co.uk'
p510
(lp511
F7.4349999999999996
aF5.4379999999999997
aF8.8239999999999998
aF13.800000000000001
aF6.6070000000000002
aF8.0350000000000001
aF7.6050000000000004
aF6.3730000000000002
aF13
aF6.0099999999999998
asS'http---googleusercontent.com'
p512
(lp513
F9.0530000000000008
aF6.3650000000000002
aF6.1959999999999997
aF7.6369999999999996
aF14.699999999999999
aF6.218
aF8.7599999999999998
aF8.0120000000000005
aF6.782
aF5.415
asS'http---livejasmin.com'
p514
(lp515
F13.199999999999999
aF12.5
aF13.800000000000001
aF14.4
aF13.9
aF13.199999999999999
aF15.9
aF13.1
aF13.4
aF13.5
asS'http---ehowenespanol.com'
p516
(lp517
F6.056
aF5.4690000000000003
aF6.3150000000000004
aF5.7590000000000003
aF5.8079999999999998
aF6.5049999999999999
aF5.5960000000000001
aF5.9770000000000003
aF7.306
aF12.4
asS'http---w3schools.com'
p518
(lp519
F7.524
aF10.1
aF11.9
aF5.4020000000000001
aF8.5359999999999996
aF8.3049999999999997
aF6.633
aF14.699999999999999
aF7.5380000000000003
aF6.5380000000000003
asS'http---played.to'
p520
(lp521
F10.699999999999999
aF7.4539999999999997
aF14.5
aF6.9939999999999998
aF8.6110000000000007
aF15.5
aF9.1050000000000004
aF10.6
aF12.6
aF11.300000000000001
asS'http---cnet.com'
p522
(lp523
F12.6
aF10.5
aF12.1
aF10.9
aF12.699999999999999
aF11.1
aF12.6
aF11.699999999999999
aF12.300000000000001
aF14.4
asS'http---badoo.com'
p524
(lp525
F10.9
aF6.5179999999999998
aF9.5310000000000006
aF10.699999999999999
aF8.5709999999999997
aF11.199999999999999
aF10.300000000000001
aF6.3520000000000003
aF5.5270000000000001
aF10
asS'http---mysearchdial.com'
p526
(lp527
F5.3179999999999996
aF7.1040000000000001
aF5.1909999999999998
aF9.3279999999999994
aF5.4299999999999997
aF5.5780000000000003
aF5.5179999999999998
aF5.3040000000000003
aF11
aF5.4619999999999997
asS'http---amazon.de'
p528
(lp529
F5.3940000000000001
aF9.2249999999999996
aF6.218
aF5.3339999999999996
aF14
aF6.2480000000000002
aF13.4
aF5.6699999999999999
aF6.867
aF6.5499999999999998
asS'http---dailymotion.com'
p530
(lp531
F6.1139999999999999
aF5.4729999999999999
aF7.04
aF7.1660000000000004
aF11.9
aF6.1269999999999998
aF5.6920000000000002
aF5.3719999999999999
aF8.8780000000000001
aF6.3369999999999997
asS'http---seg-social.es'
p532
(lp533
F12.800000000000001
aF8.4580000000000002
aF8.7810000000000006
aF6.8470000000000004
aF8.2140000000000004
aF9.6359999999999992
aF9.0749999999999993
aF8.5969999999999995
aF8.8819999999999997
aF9.391
asS'http---libertagia.com'
p534
(lp535
F14.699999999999999
aF10.800000000000001
aF14.4
aF15.6
aF14
aF14.4
aF14.800000000000001
aF14.300000000000001
aF14.6
aF15.9
asS'http---finofilipino.org'
p536
(lp537
F13.6
aF13.9
aF14.199999999999999
aF15.1
aF15.4
aF13
aF16.300000000000001
aF13.699999999999999
aF14.800000000000001
aF14.4
asS'http---spiegel.de'
p538
(lp539
F14
aF14.300000000000001
aF15
aF13.699999999999999
aF14.1
aF13.9
aF14.6
aF14.5
aF14.5
aF14.1
asS'http---vimeo.com'
p540
(lp541
F6.0659999999999998
aF9.6189999999999998
aF7.8390000000000004
aF7.742
aF8.2189999999999994
aF14.699999999999999
aF8.2729999999999997
aF11.199999999999999
aF12.199999999999999
aF7.1260000000000003
asS'http---evobanco.com'
p542
(lp543
F14.6
aF14.6
aF14.300000000000001
aF14.5
aF14.5
aF14.699999999999999
aF14.699999999999999
aF14.199999999999999
aF14.5
aF14.300000000000001
asS'http---farodevigo.es'
p544
(lp545
F14.300000000000001
aF14.699999999999999
aF14.4
aF14
aF13.6
aF14.4
aF14.4
aF13.9
aF12.5
aF14.300000000000001
asS'http---nba.com'
p546
(lp547
F13.300000000000001
aF15.5
aF13.699999999999999
aF15.9
aF14.300000000000001
aF14.300000000000001
aF14.5
aF15.5
aF14.199999999999999
aF14.4
asS'http---softonic.com'
p548
(lp549
F14.300000000000001
aF12.1
aF12.6
aF12.4
aF11.9
aF14.300000000000001
aF14.1
aF13.800000000000001
aF11.5
aF13.1
asS'http---conduit.com'
p550
(lp551
F11.9
aF7.7149999999999999
aF8.6379999999999999
aF9.9969999999999999
aF10.300000000000001
aF10.300000000000001
aF10.5
aF13.300000000000001
aF11.699999999999999
aF9.8309999999999995
asS'http---stackoverflow.com'
p552
(lp553
F15.199999999999999
aF5.2649999999999997
aF8.6940000000000008
aF5.2610000000000001
aF5.2949999999999999
aF6.4939999999999998
aF5.1449999999999996
aF10.800000000000001
aF8.5190000000000001
aF5.4189999999999996
asS'http---argentinawarez.com'
p554
(lp555
F13.9
aF15.300000000000001
aF12.9
aF14.4
aF13.199999999999999
aF14.4
aF13.4
aF14.699999999999999
aF13.9
aF13.800000000000001
asS'http---elperiodico.com'
p556
(lp557
F14.1
aF14.5
aF13.300000000000001
aF14.5
aF14.199999999999999
aF14.300000000000001
aF15.800000000000001
aF12.5
aF14.300000000000001
aF14.4
asS'http---aliexpress.com'
p558
(lp559
F9.1720000000000006
aF14.4
aF13.5
aF10.4
aF12.199999999999999
aF13.300000000000001
aF9.7509999999999994
aF13.9
aF13.6
aF13
asS'http---archive.org'
p560
(lp561
F14.199999999999999
aF14.300000000000001
aF16.199999999999999
aF14.300000000000001
aF12.199999999999999
aF14.4
aF15.300000000000001
aF14.4
aF15.6
aF12.5
asS'http---meneame.net'
p562
(lp563
F10.1
aF10.5
aF13.5
aF10.800000000000001
aF11.800000000000001
aF15.199999999999999
aF11.1
aF7.9320000000000004
aF12.199999999999999
aF11.800000000000001
asS'http---coches.net'
p564
(lp565
F6.431
aF6.5510000000000002
aF8.4559999999999995
aF6.8799999999999999
aF6.4500000000000002
aF14.1
aF6.5839999999999996
aF8.4939999999999998
aF6.3440000000000003
aF7.1829999999999998
asS'http---infojobs.net'
p566
(lp567
F7.04
aF5.202
aF7.71
aF10.9
aF6.109
aF10.199999999999999
aF8.3460000000000001
aF6.5279999999999996
aF8.3919999999999995
aF11.300000000000001
asS'http---laverdad.es'
p568
(lp569
F10.4
aF6.5819999999999999
aF7.3650000000000002
aF8.9260000000000002
aF8.7769999999999992
aF8.1449999999999996
aF9.8650000000000002
aF13.699999999999999
aF8.6630000000000003
aF11.699999999999999
asS'http---libertaddigital.com'
p570
(lp571
F11.5
aF14.199999999999999
aF14.199999999999999
aF11.4
aF13.9
aF14.4
aF13.5
aF11.9
aF12.5
aF9.1690000000000005
asS'http---investing.com'
p572
(lp573
F12
aF13.4
aF14.6
aF12.5
aF14.6
aF14.699999999999999
aF13.699999999999999
aF12.1
aF13.199999999999999
aF14.4
asS'http---antena3.com'
p574
(lp575
F12.9
aF6.8079999999999998
aF13.6
aF14.5
aF14.300000000000001
aF13.199999999999999
aF11.1
aF14.5
aF8.3559999999999999
aF14.9
asS'http---grooveshark.com'
p576
(lp577
F15.4
aF7.5030000000000001
aF6.4000000000000004
aF14.5
aF9.9440000000000008
aF7.6749999999999998
aF12
aF5.282
aF8.4990000000000006
aF5.7709999999999999
asS'http---3djuegos.com'
p578
(lp579
F10.5
aF14.5
aF10.9
aF9.4130000000000003
aF13.5
aF12.1
aF10.800000000000001
aF10.4
aF13
aF10.300000000000001
asS'http---nih.gov'
p580
(lp581
F6.2270000000000003
aF8.1460000000000008
aF15.199999999999999
aF5.4100000000000001
aF5.407
aF6.391
aF6.54
aF8.6999999999999993
aF6.1420000000000003
aF11.5
asS'http---blogspot.com'
p582
(lp583
F9.7769999999999992
aF9.8759999999999994
aF13.800000000000001
aF12
aF13.800000000000001
aF9.7940000000000005
aF10.199999999999999
aF14
aF12.699999999999999
aF8.4879999999999995
asS'http---imgur.com'
p584
(lp585
F8.7070000000000007
aF10
aF9.8209999999999997
aF6.4939999999999998
aF11.199999999999999
aF5.5730000000000004
aF9.8070000000000004
aF5.6669999999999998
aF14.4
aF10.6
asS'http---europapress.es'
p586
(lp587
F13.6
aF13.199999999999999
aF15.699999999999999
aF15.5
aF13.1
aF14.4
aF14.1
aF15.699999999999999
aF16.600000000000001
aF15
asS'http---vidspot.net'
p588
(lp589
F5.4580000000000002
aF5.6980000000000004
aF7.5960000000000001
aF8.8900000000000006
aF6.1600000000000001
aF5.3250000000000002
aF6.8680000000000003
aF5.3449999999999998
aF9.2010000000000005
aF6.4100000000000001
asS'http---lavozdegalicia.es'
p590
(lp591
F14.699999999999999
aF15.6
aF15.5
aF14.699999999999999
aF12.300000000000001
aF13.9
aF12.5
aF16.199999999999999
aF11.699999999999999
aF12.1
asS'http---tiempo.com'
p592
(lp593
F12.5
aF14.199999999999999
aF9.7400000000000002
aF9.2010000000000005
aF13.699999999999999
aF13.6
aF15.800000000000001
aF12
aF10.699999999999999
aF14.6
asS'http---vavel.com'
p594
(lp595
F8.4380000000000006
aF11.9
aF8.984
aF6.0519999999999996
aF5.149
aF7.8339999999999996
aF10.699999999999999
aF6.407
aF6.5670000000000002
aF9.7330000000000005
asS'http---1and1.es'
p596
(lp597
F14.199999999999999
aF14.4
aF14.4
aF14.4
aF14.1
aF14
aF14.5
aF14.5
aF14
aF14.5
asS'http---beeg.com'
p598
(lp599
F9.4770000000000003
aF8.0380000000000003
aF5.8600000000000003
aF5.5060000000000002
aF7.7359999999999998
aF6.2800000000000002
aF5.9509999999999996
aF6.9050000000000002
aF7.1269999999999998
aF6.202
asS'http---xnxx.com'
p600
(lp601
F10.800000000000001
aF12.5
aF14.4
aF7.5140000000000002
aF9.1029999999999998
aF6.7919999999999998
aF7.0940000000000003
aF7.6379999999999999
aF9.4589999999999996
aF8.1129999999999995
asS'http---trovit.es'
p602
(lp603
F5.4809999999999999
aF5.3920000000000003
aF5.4710000000000001
aF5.6689999999999996
aF5.4960000000000004
aF5.2949999999999999
aF5.4699999999999998
aF5.4059999999999997
aF5.4420000000000002
aF5.484
asS'http---webempresa.com'
p604
(lp605
F13.199999999999999
aF13.800000000000001
aF13.9
aF12.300000000000001
aF12.9
aF13.9
aF13.9
aF12.199999999999999
aF16
aF13.300000000000001
asS'http---torrentz.eu'
p606
(lp607
F8.8460000000000001
aF5.7779999999999996
aF6.5220000000000002
aF6.4530000000000003
aF9.4600000000000009
aF9.1489999999999991
aF8.9009999999999998
aF6.1500000000000004
aF5.79
aF6.5039999999999996
asS'http---appmefun.com'
p608
(lp609
F7.7539999999999996
aF7.1310000000000002
aF10.9
aF11.199999999999999
aF11.1
aF8.9670000000000005
aF15.699999999999999
aF10
aF8.1500000000000004
aF8.8670000000000009
asS'http---popads.net'
p610
(lp611
F9.7710000000000008
aF6.718
aF7.194
aF8.3680000000000003
aF12.199999999999999
aF13.6
aF7.5830000000000002
aF9.9710000000000001
aF7.0369999999999999
aF6.7290000000000001
asS'http---change.org'
p612
(lp613
F14.199999999999999
aF12.6
aF14.699999999999999
aF10.6
aF11.9
aF12.4
aF11.9
aF10.5
aF11.1
aF12.1
asS'http---secureserver.net'
p614
(lp615
F8.0220000000000002
aF5.4909999999999997
aF10.300000000000001
aF6.4359999999999999
aF11.800000000000001
aF13.300000000000001
aF9.2210000000000001
aF9.1449999999999996
aF6.0860000000000003
aF5.2939999999999996
asS'http---0427d7.se'
p616
(lp617
F5.5659999999999998
aF6.5629999999999997
aF5.8070000000000004
aF14.199999999999999
aF14.199999999999999
aF5.5519999999999996
aF10.1
aF5.6890000000000001
aF12.4
aF6.1639999999999997
asS'http---lineadirecta.com'
p618
(lp619
F0
aF0
aF0
aF0
asS'http---mostshinstar.com'
p620
(lp621
F6.4409999999999998
aF5.3170000000000002
aF8.9250000000000007
aF9.6630000000000003
aF9.3819999999999997
aF8.4960000000000004
aF8.6329999999999991
aF8.9090000000000007
aF5.6319999999999997
aF8.9469999999999992
asS'http---lidl.es'
p622
(lp623
F8.8559999999999999
aF6.0490000000000004
aF6.8449999999999998
aF7.742
aF6.5209999999999999
aF6.008
aF8.0670000000000002
aF5.9470000000000001
aF6.798
aF7.3330000000000002
asS'http---leroymerlin.es'
p624
(lp625
F8.5489999999999995
aF9.4659999999999993
aF8.8480000000000008
aF10.6
aF7.9770000000000003
aF7.8710000000000004
aF8.6899999999999995
aF8.1400000000000006
aF9.8130000000000006
aF9.9529999999999994
asS'http---facebook.com'
p626
(lp627
F9.0150000000000006
aF11.800000000000001
aF5.8399999999999999
aF10.300000000000001
aF12.4
aF8.0329999999999995
aF6.7990000000000004
aF7.181
aF15.1
aF6.5019999999999998
asS'http---reddit.com'
p628
(lp629
F5.702
aF9.3689999999999998
aF12.199999999999999
aF6.5540000000000003
aF5.7969999999999997
aF7.1600000000000001
aF13.300000000000001
aF14.699999999999999
aF7.7000000000000002
aF8.0990000000000002
asS'http---hp.com'
p630
(lp631
F8.1859999999999999
aF15.5
aF12.6
aF14.199999999999999
aF12.6
aF11.1
aF8.8780000000000001
aF8.4809999999999999
aF11
aF14.6
asS'http---amateur.tv'
p632
(lp633
F11.5
aF11.800000000000001
aF14.1
aF12.300000000000001
aF11.9
aF13.1
aF11.800000000000001
aF12.6
aF12.1
aF14.199999999999999
asS'http---enalquiler.com'
p634
(lp635
F14.6
aF13.9
aF13.9
aF13.699999999999999
aF14.300000000000001
aF12.5
aF14.1
aF11.9
aF14.9
aF12.6
asS'http---hola.com'
p636
(lp637
F13.4
aF12.4
aF12.1
aF15
aF12.199999999999999
aF8.2170000000000005
aF8.3350000000000009
aF13.1
aF8.8300000000000001
aF14.5
asS'http---eldiario.es'
p638
(lp639
F14.199999999999999
aF13.800000000000001
aF14.4
aF14.5
aF14.1
aF13
aF12.800000000000001
aF14.4
aF14.199999999999999
aF13.9
asS'http---wetransfer.com'
p640
(lp641
F13.5
aF11.699999999999999
aF12.800000000000001
aF12.300000000000001
aF12.699999999999999
aF11.800000000000001
aF11.699999999999999
aF13.4
aF12.199999999999999
aF12.1
asS'http---filmaffinity.com'
p642
(lp643
F14.699999999999999
aF12.4
aF10.5
aF12.699999999999999
aF15.699999999999999
aF8.8499999999999996
aF8.3490000000000002
aF9.7219999999999995
aF11.9
aF9.2349999999999994
asS'http---tumblr.com'
p644
(lp645
F12.699999999999999
aF15.9
aF12.800000000000001
aF14.300000000000001
aF10.5
aF11.300000000000001
aF8.9149999999999991
aF8.75
aF7.1829999999999998
aF13.300000000000001
asS'http---boe.es'
p646
(lp647
F5.6870000000000003
aF5.383
aF5.3920000000000003
aF5.6840000000000002
aF5.508
aF5.6550000000000002
aF12.4
aF5.0209999999999999
aF5.4589999999999996
aF5.3529999999999998
asS'http---escapadarural.com'
p648
(lp649
F6.9240000000000004
aF12.5
aF15
aF6.532
aF5.3689999999999998
aF8.6379999999999999
aF8.8230000000000004
aF5.4779999999999998
aF6.4530000000000003
aF5.2080000000000002
asS'http---arsys.es'
p650
(lp651
F12.300000000000001
aF10.5
aF12.199999999999999
aF12.699999999999999
aF11
aF8.2739999999999991
aF8.7699999999999996
aF10.300000000000001
aF13.300000000000001
aF15.800000000000001
asS'http---kickass.to'
p652
(lp653
F8.0600000000000005
aF7.5579999999999998
aF9.4890000000000008
aF8.9629999999999992
aF9.9000000000000004
aF10.6
aF10.1
aF8.5890000000000004
aF8.3949999999999996
aF8.2650000000000006
asS'http---groupon.es'
p654
(lp655
F9.7050000000000001
aF12.199999999999999
aF14.800000000000001
aF6.9690000000000003
aF11
aF7.1749999999999998
aF14
aF11.5
aF12.5
aF6.4989999999999997
asS'http---abc.es'
p656
(lp657
F12.1
aF7.2249999999999996
aF13
aF8.1639999999999997
aF7.7590000000000003
aF9.7319999999999993
aF6.9610000000000003
aF7.2729999999999997
aF9.6969999999999992
aF9.2010000000000005
asS'http---bitacoras.com'
p658
(lp659
F6.5570000000000004
aF5.2880000000000003
aF5.5830000000000002
aF5.2789999999999999
aF6.7220000000000004
aF12.4
aF12.800000000000001
aF5.4800000000000004
aF5.282
aF8.3000000000000007
asS'http---skype.com'
p660
(lp661
F9.6820000000000004
aF14.4
aF10.800000000000001
aF9.2469999999999999
aF15
aF12
aF10.5
aF15.300000000000001
aF9.391
aF14.4
asS'http---ovh.net'
p662
(lp663
F7.3840000000000003
aF8.4529999999999994
aF8.2309999999999999
aF11.800000000000001
aF5.1689999999999996
aF12
aF11.1
aF12.199999999999999
aF9.9740000000000002
aF6.2729999999999997
asS'http---htcmania.com'
p664
(lp665
F14.6
aF14.699999999999999
aF15.300000000000001
aF14.4
aF14.699999999999999
aF14.4
aF14
aF14.800000000000001
aF14.6
aF14.199999999999999
asS'http---ebay.es'
p666
(lp667
F11.699999999999999
aF9.3780000000000001
aF5.7960000000000003
aF11
aF14.5
aF12
aF9.1199999999999992
aF6.2649999999999997
aF8.6809999999999992
aF5.7800000000000002
asS'http---live.com'
p668
(lp669
F5.9539999999999997
aF6.6719999999999997
aF15.300000000000001
aF14.5
aF7.4029999999999996
aF9.8559999999999999
aF9.6679999999999993
aF5.6520000000000001
aF5.9400000000000004
aF5.5919999999999996
asS'http---wikihow.com'
p670
(lp671
F11.5
aF9.6349999999999998
aF7.1970000000000001
aF15
aF7.1280000000000001
aF6.7839999999999998
aF12.9
aF12.1
aF7.3079999999999998
aF8.4220000000000006
asS'http---google.es'
p672
(lp673
F5.367
aF11.9
aF6.25
aF7.2270000000000003
aF6.9020000000000001
aF6.7190000000000003
aF12.300000000000001
aF11.9
aF5.9489999999999998
aF8.7750000000000004
asS'http---ashleyrnadison.com'
p674
(lp675
F6.7130000000000001
aF6.867
aF6.9169999999999998
aF10.9
aF15
aF10.199999999999999
aF5.7699999999999996
aF9.1389999999999993
aF11.4
aF6.5170000000000003
asS'http---xhamster.com'
p676
(lp677
F7.2990000000000004
aF5.2759999999999998
aF5.6189999999999998
aF8.7910000000000004
aF10.6
aF12.5
aF6.5090000000000003
aF6.7800000000000002
aF12.6
aF7.0010000000000003
asS'http---bing.com'
p678
(lp679
F5.2279999999999998
aF6.8789999999999996
aF5.4470000000000001
aF7.2510000000000003
aF5.8739999999999997
aF5.1689999999999996
aF14.1
aF5.431
aF5.5579999999999998
aF12.5
asS'http---alt1040.com'
p680
(lp681
F14.4
aF10.699999999999999
aF14.4
aF10.6
aF14.699999999999999
aF11.300000000000001
aF14.199999999999999
aF14.4
aF10.1
aF14.4
asS'http---amazonaws.com'
p682
(lp683
F7.2389999999999999
aF8.5199999999999996
aF8.7040000000000006
aF8.0169999999999995
aF12.199999999999999
aF14.5
aF7.2069999999999999
aF9.2439999999999998
aF12.6
aF8.2110000000000003
asS'http---foro20.com'
p684
(lp685
F6.29
aF14.199999999999999
aF10.4
aF9.5020000000000007
aF6.0800000000000001
aF9.8949999999999996
aF7.0720000000000001
aF6.1680000000000001
aF10
aF8.2439999999999998
asS'http---redsys.es'
p686
(lp687
F5.4669999999999996
aF12.1
aF10.800000000000001
aF8.7759999999999998
aF11.5
aF8.5600000000000005
aF12.699999999999999
aF11.699999999999999
aF8.6170000000000009
aF11
asS'http---battle.net'
p688
(lp689
F7.1740000000000004
aF8.4440000000000008
aF6.6609999999999996
aF12.699999999999999
aF6.7309999999999999
aF12.699999999999999
aF6.8449999999999998
aF7.5910000000000002
aF7.117
aF6.9349999999999996
asS'http---sourceforge.net'
p690
(lp691
F14.300000000000001
aF13
aF10.699999999999999
aF11.5
aF8.9499999999999993
aF12.4
aF9.5850000000000009
aF9.7949999999999999
aF13.5
aF14.800000000000001
asS'http---themeforest.net'
p692
(lp693
F10.5
aF11.1
aF10.5
aF7.7009999999999996
aF9.3450000000000006
aF6.5620000000000003
aF11.9
aF7.0279999999999996
aF8.8339999999999996
aF7.6639999999999997
asS'http---media.tumblr.com'
p694
(lp695
F9.2739999999999991
aF12.4
aF9.4480000000000004
aF10.300000000000001
aF8.5
aF7.8600000000000003
aF6.2629999999999999
aF6.8230000000000004
aF6.1820000000000004
aF10
asS'http---xataka.com'
p696
(lp697
F10
aF13.6
aF15.4
aF12.1
aF12.199999999999999
aF8.8409999999999993
aF10.6
aF12.9
aF9.891
aF10.699999999999999
asS'http---mforos.com'
p698
(lp699
F7.3600000000000003
aF7.8220000000000001
aF8.3510000000000009
aF6.8040000000000003
aF5.5599999999999996
aF6.8650000000000002
aF9.1270000000000007
aF6.3239999999999998
aF6.5330000000000004
aF13.1
asS'http---elcorreo.com'
p700
(lp701
F9.5
aF12.5
aF10.5
aF8.3949999999999996
aF7.2320000000000002
aF7.9740000000000002
aF14.5
aF13.1
aF7.0250000000000004
aF7.9459999999999997
asS'http---zanox.com'
p702
(lp703
F11.300000000000001
aF12.6
aF14.9
aF10.5
aF14.199999999999999
aF8.6780000000000008
aF9.218
aF10.199999999999999
aF12.5
aF9.2140000000000004
asS'http---elotrolado.net'
p704
(lp705
F13.699999999999999
aF13
aF13.300000000000001
aF12.9
aF7.8419999999999996
aF10.5
aF10.300000000000001
aF11.4
aF8.9920000000000009
aF11.300000000000001
asS'http---xunta.es'
p706
(lp707
F13.699999999999999
aF14.300000000000001
aF6.7830000000000004
aF7.2359999999999998
aF7.6349999999999998
aF10.5
aF12
aF10.5
aF6.4550000000000001
aF11.5
asS'http---diarioinformacion.com'
p708
(lp709
F13.9
aF14.699999999999999
aF15.300000000000001
aF13.1
aF13.300000000000001
aF14.699999999999999
aF14
aF13.800000000000001
aF12.300000000000001
aF13
asS'http---todoexpertos.com'
p710
(lp711
F14.300000000000001
aF14
aF14.5
aF14.5
aF14.4
aF15.1
aF14.199999999999999
aF14.800000000000001
aF14
aF14.1
asS'http---mediafire.com'
p712
(lp713
F11.699999999999999
aF14.199999999999999
aF11.199999999999999
aF8.9320000000000004
aF8.9749999999999996
aF12.4
aF15.1
aF12.4
aF13
aF10.5
asS'http---rtve.es'
p714
(lp715
F14.300000000000001
aF13.6
aF14.5
aF14
aF12.9
aF14
aF14.300000000000001
aF14.5
aF12.4
aF13.9
asS'http---prestashop.com'
p716
(lp717
F14
aF14.199999999999999
aF16
aF13.1
aF12.9
aF13.5
aF12.699999999999999
aF12.4
aF15.800000000000001
aF16
asS'http---quondos.com'
p718
(lp719
F11.800000000000001
aF11.9
aF13.800000000000001
aF16
aF15.4
aF12.5
aF14.5
aF12.800000000000001
aF14.5
aF14.4
asS'http---bookryanair.com'
p720
(lp721
F5.4660000000000002
aF5.0430000000000001
aF13.300000000000001
aF13.4
aF8.0069999999999997
aF11.699999999999999
aF6.0289999999999999
aF5.7169999999999996
aF12.199999999999999
aF12.1
asS'http---blogspot.com.es'
p722
(lp723
F5.4009999999999998
aF5.452
aF6.3220000000000001
aF6.5190000000000001
aF8.5419999999999998
aF5.282
aF7.5810000000000004
aF13.300000000000001
aF8.0600000000000005
aF9.3249999999999993
asS'http---que.es'
p724
(lp725
F14.4
aF14.300000000000001
aF14.4
aF14.199999999999999
aF14.300000000000001
aF14.4
aF14.300000000000001
aF14.300000000000001
aF14.300000000000001
aF14.4
asS'http---gencat.cat'
p726
(lp727
F7.5940000000000003
aF12.300000000000001
aF7.2050000000000001
aF6.6600000000000001
aF10.1
aF9.9830000000000005
aF12.800000000000001
aF7.3979999999999997
aF8.0299999999999994
aF9.0549999999999997
asS'http---ign.com'
p728
(lp729
F6.6790000000000003
aF10.1
aF8.6649999999999991
aF14.6
aF9.3079999999999998
aF5.7729999999999997
aF9.9380000000000006
aF5.6340000000000003
aF11.9
aF8.0329999999999995
asS'http---eltiempo.es'
p730
(lp731
F14.5
aF13.800000000000001
aF13.300000000000001
aF14.4
aF13.6
aF13.6
aF15.9
aF13.300000000000001
aF14.300000000000001
aF14.5
asS'http---domestika.org'
p732
(lp733
F15.6
aF11.9
aF14.699999999999999
aF14.199999999999999
aF14.1
aF14.6
aF15.699999999999999
aF14.300000000000001
aF13.199999999999999
aF13.699999999999999
asS'http---burbuja.info'
p734
(lp735
F9.7919999999999998
aF12.9
aF14.199999999999999
aF13.800000000000001
aF14.300000000000001
aF14.6
aF13.5
aF12.4
aF13.5
aF14.199999999999999
asS'http---mejortorrent.com'
p736
(lp737
F7.9850000000000003
aF9.202
aF5.3920000000000003
aF12.6
aF14.4
aF5.5670000000000002
aF14.5
aF5.4699999999999998
aF15.6
aF14.699999999999999
asS'http---divxatope.com'
p738
(lp739
F14.6
aF14.5
aF13.1
aF13.800000000000001
aF15.5
aF14.6
aF12.300000000000001
aF14.5
aF14.4
aF14.300000000000001
asS'http---segundamano.es'
p740
(lp741
F10.6
aF8.9480000000000004
aF11.4
aF12.9
aF11.6
aF9.7919999999999998
aF10.1
aF14.300000000000001
aF12.6
aF8.0180000000000007
asS'http---addmefast.com'
p742
(lp743
F11.300000000000001
aF9.1630000000000003
aF11.300000000000001
aF8.9329999999999998
aF11
aF9.5559999999999992
aF10.1
aF7.7080000000000002
aF10.800000000000001
aF9.6140000000000008
asS'http---gizmodo.com'
p744
(lp745
F14.9
aF14.4
aF14.300000000000001
aF13.9
aF14.4
aF13.800000000000001
aF14.699999999999999
aF14.4
aF13.9
aF14.199999999999999
asS'http---ayudawp.com'
p746
(lp747
F14.6
aF13.300000000000001
aF16.399999999999999
aF15.5
aF9.6189999999999998
aF12.4
aF13.1
aF12.800000000000001
aF13.199999999999999
aF16.399999999999999
asS'http---exoclick.com'
p748
(lp749
F11
aF14.6
aF8.1389999999999993
aF6.9500000000000002
aF10
aF15.800000000000001
aF6.9539999999999997
aF13.4
aF9.8230000000000004
aF10.4
asS'http---sumaclicks.com'
p750
(lp751
F5.9610000000000003
aF6.5140000000000002
aF6.569
aF15.1
aF5.9950000000000001
aF5.9370000000000003
aF7.5220000000000002
aF7.2290000000000001
aF6.2240000000000002
aF5.5490000000000004
asS'http---rapidgator.net'
p752
(lp753
F7.1379999999999999
aF9.048
aF11.699999999999999
aF11.4
aF9.6199999999999992
aF5.9630000000000001
aF10.699999999999999
aF8.4949999999999992
aF5.7320000000000002
aF5.6449999999999996
asS'http---plus.es'
p754
(lp755
F13.800000000000001
aF14.4
aF14.5
aF14.800000000000001
aF13.4
aF14.5
aF16.399999999999999
aF14.300000000000001
aF14.199999999999999
aF13.199999999999999
asS'http---milanuncios.com'
p756
(lp757
F7.7690000000000001
aF12.300000000000001
aF6.056
aF6.8890000000000002
aF6.8879999999999999
aF7.5300000000000002
aF6.931
aF6.1689999999999996
aF6.4690000000000003
aF6.8170000000000002
asS'http---pccomponentes.com'
p758
(lp759
F6.3819999999999997
aF14.4
aF11.9
aF12.4
aF9.9770000000000003
aF6.4550000000000001
aF6.2480000000000002
aF10.199999999999999
aF14.800000000000001
aF5.9729999999999999
asS'http---loading-delivery1.com'
p760
(lp761
F7.4029999999999996
aF7.0519999999999996
aF7.7300000000000004
aF5.0970000000000004
aF6.6580000000000004
aF9.5809999999999995
aF5.8810000000000002
aF7.9980000000000002
aF8.8010000000000002
aF9.298
asS'http---iminent.com'
p762
(lp763
F14.300000000000001
aF14.199999999999999
aF15.300000000000001
aF14.1
aF13.9
aF13.9
aF14.6
aF14.6
aF12.5
aF14.6
asS'http---adf.ly'
p764
(lp765
F11.4
aF12.300000000000001
aF10.199999999999999
aF6.4249999999999998
aF9.9779999999999998
aF9.5850000000000009
aF11.300000000000001
aF9.9239999999999995
aF6.2590000000000003
aF10.800000000000001
asS'http---groupalia.com'
p766
(lp767
F9.7230000000000008
aF15.199999999999999
aF6.6890000000000001
aF7.6909999999999998
aF6.2480000000000002
aF5.4169999999999998
aF6.6230000000000002
aF7.1079999999999997
aF8.6199999999999992
aF7.1349999999999998
asS'http---serviporno.com'
p768
(lp769
F6.367
aF13
aF14.4
aF7.5229999999999997
aF8.9550000000000001
aF8.3200000000000003
aF12.199999999999999
aF5.367
aF9.7300000000000004
aF6.7830000000000004
asS'http---woorank.com'
p770
(lp771
F13.300000000000001
aF12.6
aF10.199999999999999
aF6.0880000000000001
aF13.6
aF10.1
aF14.199999999999999
aF14.800000000000001
aF8.3550000000000004
aF5.4779999999999998
asS'http---elpais.com'
p772
(lp773
F14.199999999999999
aF13.9
aF14
aF14.300000000000001
aF14.4
aF14.9
aF14.300000000000001
aF14.4
aF14.4
aF14
asS'http---anuntiomatic.com'
p774
(lp775
F13.4
aF8.1560000000000006
aF5.4290000000000003
aF5.4790000000000001
aF13.6
aF10
aF5.3070000000000004
aF7.9710000000000001
aF10.6
aF5.2690000000000001
asS'http---mailchimp.com'
p776
(lp777
F5.5220000000000002
aF6.9980000000000002
aF5.9969999999999999
aF6.6859999999999999
aF8.8369999999999997
aF6.1689999999999996
aF8.8239999999999998
aF6.2640000000000002
aF5.306
aF6.4400000000000004
asS'http---bet365.es'
p778
(lp779
F7.4859999999999998
aF15.5
aF13.699999999999999
aF11.800000000000001
aF14.1
aF10.199999999999999
aF15.800000000000001
aF14.4
aF11.300000000000001
aF14.4
asS'http---minube.com'
p780
(lp781
F12
aF13.699999999999999
aF13.5
aF16.199999999999999
aF12.9
aF12.9
aF13.1
aF12.6
aF16.699999999999999
aF12.800000000000001
asS'http---vente-privee.com'
p782
(lp783
F14.300000000000001
aF14.6
aF14.199999999999999
aF12.6
aF14.199999999999999
aF14.300000000000001
aF14.199999999999999
aF14.4
aF14.4
aF12.699999999999999
asS'http---cpmterra.com'
p784
(lp785
F7.5090000000000003
aF7.4550000000000001
aF6.0229999999999997
aF6.8380000000000001
aF8.7360000000000007
aF6.9580000000000002
aF7.1399999999999997
aF10.4
aF7.1829999999999998
aF13
asS'http---eleconomista.es'
p786
(lp787
F14.4
aF14.5
aF7.5300000000000002
aF16.300000000000001
aF14.5
aF6.665
aF14.4
aF6.5270000000000001
aF16.100000000000001
aF15.6
asS'http---thepiratebay.se'
p788
(lp789
F5.4850000000000003
aF5.6429999999999998
aF13.4
aF5.452
aF6.3129999999999997
aF5.4400000000000004
aF5.4119999999999999
aF5.3879999999999999
aF6.2480000000000002
aF6.4740000000000002
asS'http---lne.es'
p790
(lp791
F14
aF12.800000000000001
aF11.5
aF11.6
aF13.800000000000001
aF11.6
aF12.699999999999999
aF11.5
aF13.199999999999999
aF11.300000000000001
asS'http---gruposantander.es'
p792
(lp793
F8.5190000000000001
aF9.8510000000000009
aF11.199999999999999
aF11.300000000000001
aF12.9
aF12.4
aF5.4790000000000001
aF7.7869999999999999
aF5.5250000000000004
aF13.5
asS'http---wishclub.com'
p794
(lp795
F5.9640000000000004
aF6.4690000000000003
aF6.0380000000000003
aF6.9240000000000004
aF10.9
aF5.9290000000000003
aF8.7750000000000004
aF11.300000000000001
aF5.2130000000000001
aF10.199999999999999
asS'http---tuenti.com'
p796
(lp797
F14.4
aF9.4770000000000003
aF10.4
aF10.4
aF12
aF14.6
aF14.4
aF9.3789999999999996
aF12.699999999999999
aF7.3940000000000001
asS'http---impactante.tv'
p798
(lp799
F12.9
aF7.0869999999999997
aF5.3170000000000002
aF5.3170000000000002
aF6.452
aF5.6820000000000004
aF5.4480000000000004
aF11.9
aF6.9749999999999996
aF10.5
asS'http---etsy.com'
p800
(lp801
F15.6
aF7.4939999999999998
aF9.9580000000000002
aF9.6359999999999992
aF9.1649999999999991
aF9.5329999999999995
aF16
aF6.798
aF11.5
aF14.699999999999999
asS'http---yaencontre.com'
p802
(lp803
F12.1
aF7.5209999999999999
aF10.199999999999999
aF8.1850000000000005
aF6.2960000000000003
aF10
aF10.199999999999999
aF15.800000000000001
aF6.4450000000000003
aF6.2619999999999996
asS'http---terra.es'
p804
(lp805
F8.5380000000000003
aF14.699999999999999
aF14.300000000000001
aF14.199999999999999
aF9.4890000000000008
aF15.300000000000001
aF14.300000000000001
aF16.199999999999999
aF13.6
aF14.4
asS'http---vodafone.es'
p806
(lp807
F14.5
aF14.699999999999999
aF13.800000000000001
aF14.1
aF16.100000000000001
aF14.199999999999999
aF14.800000000000001
aF14.6
aF14.300000000000001
aF13.9
asS'http---privalia.com'
p808
(lp809
F6.5949999999999998
aF6.774
aF7.1749999999999998
aF14.4
aF6.2720000000000002
aF10.199999999999999
aF6.5220000000000002
aF6.6379999999999999
aF6.4139999999999997
aF5.3499999999999996
asS'http---semrush.com'
p810
(lp811
F8.2360000000000007
aF8.8610000000000007
aF14.5
aF8.9689999999999994
aF7.6059999999999999
aF8.8840000000000003
aF9.4079999999999995
aF9.532
aF10.5
aF8.0090000000000003
asS'http---tiramillas.net'
p812
(lp813
F13.5
aF15.6
aF13.699999999999999
aF9.5259999999999998
aF13.699999999999999
aF13.9
aF13.9
aF11
aF9.2569999999999997
aF14.4
asS'http---go.com'
p814
(lp815
F14.4
aF14.5
aF14.5
aF10.6
aF15.300000000000001
aF14.300000000000001
aF12.6
aF12.5
aF14.5
aF13.800000000000001
asS'http---axesor.es'
p816
(lp817
F5.4980000000000002
aF13.1
aF6.96
aF6.165
aF6.6079999999999997
aF12.6
aF5.7599999999999998
aF14.800000000000001
aF8.3689999999999998
aF6.1340000000000003
asS'http---alibaba.com'
p818
(lp819
F6.2999999999999998
aF6.0259999999999998
aF6.0300000000000002
aF13
aF6.2149999999999999
aF8.0470000000000006
aF7.8710000000000004
aF6.1760000000000002
aF5.952
aF12.5
asS'http---vube.com'
p820
(lp821
F14.300000000000001
aF14
aF14.4
aF14
aF14.300000000000001
aF14.5
aF14.4
aF14.1
aF14
aF14.300000000000001
asS'http---freepik.es'
p822
(lp823
F11.699999999999999
aF9.2690000000000001
aF9.7029999999999994
aF12.800000000000001
aF11.6
aF12.1
aF9.8640000000000008
aF13.300000000000001
aF14.5
aF8.5
asS'http---huffingtonpost.com'
p824
(lp825
F14.4
aF14.5
aF16.199999999999999
aF13.199999999999999
aF11.5
aF13.699999999999999
aF14
aF14.4
aF14.199999999999999
aF14.5
asS'http---microsoft.com'
p826
(lp827
F8.6210000000000004
aF12.4
aF14.199999999999999
aF7.3769999999999998
aF9.0039999999999996
aF13.9
aF11.4
aF8.4450000000000003
aF13.199999999999999
aF8.3160000000000007
asS'http---beruby.com'
p828
(lp829
F5.8099999999999996
aF12.6
aF10.9
aF10.9
aF9.2029999999999994
aF6.6799999999999997
aF7.2519999999999998
aF5.5700000000000003
aF5.6299999999999999
aF12.300000000000001
asS'http---lasprovincias.es'
p830
(lp831
F13.800000000000001
aF13.199999999999999
aF12.4
aF12.1
aF12.699999999999999
aF13.300000000000001
aF9.641
aF12.4
aF13.300000000000001
aF9.7059999999999995
asS'http---cdmon.com'
p832
(lp833
F6.8620000000000001
aF5.7720000000000002
aF10.4
aF5.7240000000000002
aF11.800000000000001
aF13
aF7.0650000000000004
aF7.8949999999999996
aF16.199999999999999
aF13
asS'http---itrack.it'
p834
(lp835
F5.0730000000000004
aF12.800000000000001
aF8.8140000000000001
aF13.5
aF5.2270000000000003
aF7.4370000000000003
aF5.4699999999999998
aF5.2530000000000001
aF14.199999999999999
aF8.4100000000000001
asS'http---unetenet.com'
p836
(lp837
F14.300000000000001
aF12.5
aF5.4699999999999998
aF5.4770000000000003
aF5.4690000000000003
aF11.9
aF5.6230000000000002
aF11.800000000000001
aF11.699999999999999
aF11.1
asS'http---bloglovin.com'
p838
(lp839
F9.6669999999999998
aF10.9
aF9.7870000000000008
aF10.9
aF11.5
aF9.6310000000000002
aF13
aF10.199999999999999
aF10.199999999999999
aF8.4949999999999992
asS'http---seriespepito.com'
p840
(lp841
F13.300000000000001
aF13.5
aF10.1
aF12.800000000000001
aF12.199999999999999
aF15.4
aF16
aF13.699999999999999
aF13.6
aF12.699999999999999
asS'http---es.wordpress.com'
p842
(lp843
F6.3700000000000001
aF14.699999999999999
aF12
aF6.75
aF6.6470000000000002
aF6.5899999999999999
aF8.1289999999999996
aF9.3239999999999998
aF5.524
aF6.7220000000000004
asS'http---habitaclia.com'
p844
(lp845
F14.1
aF14.4
aF14.1
aF12.9
aF14.5
aF14.1
aF13
aF15.199999999999999
aF13
aF14.1
asS'http---imdb.com'
p846
(lp847
F11
aF7.7290000000000001
aF5.9080000000000004
aF10.6
aF11.4
aF10.6
aF11.4
aF6.2960000000000003
aF9.6359999999999992
aF7.9329999999999998
asS'http---github.com'
p848
(lp849
F15.6
aF16
aF13.6
aF13.199999999999999
aF9.3859999999999992
aF11.300000000000001
aF11.6
aF12.9
aF11.300000000000001
aF14.800000000000001
asS'http---elandroidelibre.com'
p850
(lp851
F8.8109999999999999
aF6.2510000000000003
aF8.1110000000000007
aF5.8959999999999999
aF6.6959999999999997
aF12.699999999999999
aF9.4990000000000006
aF8.0690000000000008
aF10.4
aF9.8879999999999999
asS'http---sport.es'
p852
(lp853
F13.5
aF14.300000000000001
aF14.6
aF14.6
aF14.4
aF14.5
aF14.1
aF14.800000000000001
aF14.1
aF14.5
asS'http---mitele.es'
p854
(lp855
F12.1
aF13.300000000000001
aF12.4
aF13.300000000000001
aF14.300000000000001
aF12.9
aF14
aF13.199999999999999
aF14.6
aF15
asS'http---divxtotal.com'
p856
(lp857
F6.96
aF6.4569999999999999
aF5.694
aF7.7000000000000002
aF5.7430000000000003
aF6.8700000000000001
aF5.3209999999999997
aF11.4
aF7.2629999999999999
aF10.800000000000001
asS'http---seur.com'
p858
(lp859
F14.199999999999999
aF14.1
aF12.199999999999999
aF13.4
aF14.9
aF13.300000000000001
aF13.5
aF14.6
aF13.9
aF13.4
asS'http---tripadvisor.es'
p860
(lp861
F8.0220000000000002
aF7.8920000000000003
aF9.0939999999999994
aF7.5119999999999996
aF6.298
aF7.3440000000000003
aF7.1639999999999997
aF9.4800000000000004
aF13.800000000000001
aF7.2279999999999998
asS'http---bankinter.com'
p862
(lp863
F5.4699999999999998
aF5.8019999999999996
aF7.6340000000000003
aF7.6150000000000002
aF5.492
aF5.4939999999999998
aF5.8620000000000001
aF7.3200000000000003
aF9.3640000000000008
aF6.0129999999999999
asS'http---tuspelis.co'
p864
(lp865
F5.6180000000000003
aF7.2130000000000001
aF6.4050000000000002
aF6.5289999999999999
aF7.0449999999999999
aF11.1
aF8.7739999999999991
aF7.0289999999999999
aF6.4589999999999996
aF6.1289999999999996
asS'http---expansion.com'
p866
(lp867
F7.7679999999999998
aF5.306
aF13.199999999999999
aF6.577
aF7.3869999999999996
aF14.9
aF6.7400000000000002
aF6.1719999999999997
aF6.7729999999999997
aF5.6920000000000002
asS'http---uned.es'
p868
(lp869
F8.0310000000000006
aF9.8249999999999993
aF9.3810000000000002
aF7.0970000000000004
aF8.7910000000000004
aF5.8710000000000004
aF8.1630000000000003
aF8.452
aF5.4509999999999996
aF10.5
asS'http---airbnb.es'
p870
(lp871
F8.0719999999999992
aF8.7739999999999991
aF14.4
aF16
aF12.699999999999999
aF15.699999999999999
aF14.4
aF13.9
aF14.5
aF13.9
asS'http---meristation.com'
p872
(lp873
F15
aF15.9
aF14.6
aF14.5
aF14.300000000000001
aF16.199999999999999
aF13.6
aF14.4
aF14.800000000000001
aF14.1
asS'http---github.io'
p874
(lp875
F13.300000000000001
aF14.699999999999999
aF14.5
aF13.6
aF14.9
aF13
aF16.199999999999999
aF14.800000000000001
aF12.4
aF14.800000000000001
asS'http---rakuten.es'
p876
(lp877
F9.7110000000000003
aF10.6
aF11.6
aF11.1
aF6.5490000000000004
aF6.3419999999999996
aF8.8640000000000008
aF7.4989999999999997
aF9.6170000000000009
aF13.4
asS'http---ciao.es'
p878
(lp879
F8.891
aF6.7679999999999998
aF9.0500000000000007
aF5.4020000000000001
aF8.5079999999999991
aF6.4790000000000001
aF6.4480000000000004
aF7.016
aF9.6010000000000009
aF5.5640000000000001
asS'http---loquo.com'
p880
(lp881
F9.7219999999999995
aF8.3539999999999992
aF10.1
aF9.0359999999999996
aF8.4009999999999998
aF13.6
aF13.1
aF8.984
aF8.4789999999999992
aF11.300000000000001
asS'http---cincodias.com'
p882
(lp883
F13.9
aF13.1
aF14.5
aF16.199999999999999
aF12
aF14.4
aF14.5
aF15.199999999999999
aF14.699999999999999
aF14.1
asS'http---20minutos.es'
p884
(lp885
F5.8109999999999999
aF8.0009999999999994
aF5.6909999999999998
aF7.218
aF7.7969999999999997
aF7.5759999999999996
aF8.8780000000000001
aF8.5660000000000007
aF6.9470000000000001
aF7.9219999999999997
asS'http---redcoon.es'
p886
(lp887
F13.5
aF9.0589999999999993
aF14.300000000000001
aF8.4870000000000001
aF9.6809999999999992
aF8.8230000000000004
aF10.300000000000001
aF13.699999999999999
aF10.5
aF15.300000000000001
asS'http---elcorteingles.es'
p888
(lp889
F12.800000000000001
aF11.5
aF10.5
aF11
aF8.8559999999999999
aF11.699999999999999
aF9.3819999999999997
aF6.1989999999999998
aF6.2119999999999997
aF5.4509999999999996
asS'http---movistar.es'
p890
(lp891
F14
aF12.6
aF13.5
aF14.5
aF10.9
aF14.5
aF12.4
aF12.800000000000001
aF11.5
aF10.6
asS'http---enfemenino.com'
p892
(lp893
F15.5
aF5.9720000000000004
aF14.4
aF11.300000000000001
aF9.1479999999999997
aF12.199999999999999
aF11.199999999999999
aF13.6
aF10.1
aF13.5
asS'http---rae.es'
p894
(lp895
F14.1
aF5.2539999999999996
aF6.1970000000000001
aF5.2759999999999998
aF5.1509999999999998
aF5.3490000000000002
aF6.5510000000000002
aF13.699999999999999
aF5.6269999999999998
aF5.3540000000000001
asS'http---aeat.es'
p896
(lp897
F5.3550000000000004
aF7.0039999999999996
aF7.9889999999999999
aF6.9189999999999996
aF10
aF12.5
aF6.3479999999999999
aF5.4800000000000004
aF8.0709999999999997
aF5.976
asS'http---sermepa.es'
p898
(lp899
F6.3410000000000002
aF8.8000000000000007
aF8.7710000000000008
aF6.1790000000000003
aF6.4089999999999998
aF8.5419999999999998
aF5.5289999999999999
aF9.1880000000000006
aF8.6539999999999999
aF8.266
asS'http---hostgator.com'
p900
(lp901
F9.7929999999999993
aF9.1999999999999993
aF8.9969999999999999
aF10.699999999999999
aF9.3650000000000002
aF11.6
aF10.6
aF14.1
aF9.1539999999999999
aF9.4540000000000006
asS'http---mundodeportivo.com'
p902
(lp903
F5.4960000000000004
aF13.9
aF16.300000000000001
aF14.699999999999999
aF14.6
aF14.4
aF14.199999999999999
aF14.5
aF14.4
aF16
asS'http---ingdirect.es'
p904
(lp905
F9.0340000000000007
aF12
aF8.3849999999999998
aF7.6790000000000003
aF8.0660000000000007
aF10.9
aF9.2110000000000003
aF5.5030000000000001
aF5.6920000000000002
aF11.699999999999999
asS'http---twimg.com'
p906
(lp907
F8.8960000000000008
aF9.2759999999999998
aF8.593
aF5.4710000000000001
aF5.665
aF5.5579999999999998
aF8.5380000000000003
aF6.0780000000000003
aF8.5410000000000004
aF9.1790000000000003
asS'http---linguee.es'
p908
(lp909
F5.5469999999999997
aF5.2830000000000004
aF5.2619999999999996
aF5.3440000000000003
aF5.3920000000000003
aF5.4249999999999998
aF5.407
aF13
aF5.3609999999999998
aF9.3900000000000006
asS'http---edarling.es'
p910
(lp911
F14.199999999999999
aF15.1
aF13.9
aF14.699999999999999
aF12.4
aF13.300000000000001
aF13.5
aF13.699999999999999
aF11.6
aF12.300000000000001
asS'http---onclickads.net'
p912
(lp913
F6.1420000000000003
aF5.3879999999999999
aF7.4619999999999997
aF5.5410000000000004
aF5.4379999999999997
aF10.6
aF6.4930000000000003
aF15.5
aF10.4
aF6.202
asS'http---google.co.uk'
p914
(lp915
F14.9
aF14.5
aF9.2430000000000003
aF5.5170000000000003
aF7.2469999999999999
aF6.9450000000000003
aF11
aF10.6
aF10.4
aF7.1740000000000004
asS'http---mediamarkt.es'
p916
(lp917
F12.1
aF7.3419999999999996
aF13.699999999999999
aF5.8630000000000004
aF15.300000000000001
aF14
aF10.199999999999999
aF9.5289999999999999
aF6.5270000000000001
aF6.1890000000000001
asS'http---adobe.com'
p918
(lp919
F14.5
aF14.6
aF14.1
aF14.6
aF13.9
aF14.4
aF14
aF13.800000000000001
aF14.1
aF14.5
asS'http---dinero2014.com'
p920
(lp921
F5.3360000000000003
aF5.4400000000000004
aF5.4649999999999999
aF5.4050000000000002
aF5.7080000000000002
aF5.1749999999999998
aF5.3310000000000004
aF5.4539999999999997
aF5.4329999999999998
aF5.226
asS'http---rt.com'
p922
(lp923
F13.1
aF13.800000000000001
aF13.699999999999999
aF14.5
aF14.300000000000001
aF14.1
aF13.800000000000001
aF14.4
aF14.300000000000001
aF14.1
asS'http---awesomehp.com'
p924
(lp925
F10.800000000000001
aF10.4
aF13.699999999999999
aF14.300000000000001
aF10.9
aF12
aF14.199999999999999
aF10.4
aF12.5
aF15.800000000000001
asS'http---codecanyon.net'
p926
(lp927
F6.8319999999999999
aF7.8339999999999996
aF11.4
aF13.9
aF11.300000000000001
aF7.5250000000000004
aF10.9
aF7.7699999999999996
aF10.4
aF8.2420000000000009
asS'http---rojadirecta.me'
p928
(lp929
F6.7999999999999998
aF10.199999999999999
aF7.6459999999999999
aF8.8190000000000008
aF9.6929999999999996
aF11.1
aF6.54
aF6.5700000000000003
aF6.3840000000000003
aF9.0820000000000007
asS'http---peliculaspepito.com'
p930
(lp931
F13.800000000000001
aF14.199999999999999
aF14.4
aF13.9
aF14.5
aF13.699999999999999
aF14
aF13.800000000000001
aF13.9
aF14
asS'http---wordpress.org'
p932
(lp933
F5.298
aF12.199999999999999
aF5.2779999999999996
aF7.194
aF5.2930000000000001
aF7.6120000000000001
aF5.9880000000000004
aF15.5
aF14.300000000000001
aF15.6
asS'http---forobeta.com'
p934
(lp935
F5.7610000000000001
aF5.9640000000000004
aF6.5609999999999999
aF8.4849999999999994
aF6.4630000000000001
aF11.6
aF6.633
aF7.9720000000000004
aF6.218
aF11.800000000000001
asS'http---tradedoubler.com'
p936
(lp937
F11.699999999999999
aF11.1
aF11.4
aF11.9
aF11.5
aF11.4
aF12.199999999999999
aF11.4
aF10.800000000000001
aF11
asS'http---skyscanner.es'
p938
(lp939
F9.7129999999999992
aF9.3620000000000001
aF13.6
aF8.6679999999999993
aF9.4139999999999997
aF13.1
aF12.5
aF14
aF12.199999999999999
aF13.5
asS'http---levante-emv.com'
p940
(lp941
F14
aF13
aF13.6
aF14.199999999999999
aF14.199999999999999
aF16.300000000000001
aF12.800000000000001
aF13.6
aF14.5
aF13.5
asS'http---slideshare.net'
p942
(lp943
F12
aF11.4
aF14.6
aF11.4
aF14.699999999999999
aF14.6
aF15.1
aF10.800000000000001
aF9.7680000000000007
aF15.4
asS'http---mail.ru'
p944
(lp945
F13.800000000000001
aF13.4
aF6.6609999999999996
aF6.2789999999999999
aF6.8360000000000003
aF6.2279999999999998
aF6.6769999999999996
aF6.7670000000000003
aF12.4
aF7.1639999999999997
asS'http---dinahosting.com'
p946
(lp947
F13.9
aF7.4930000000000003
aF11.699999999999999
aF12.800000000000001
aF8.4130000000000003
aF6.7160000000000002
aF8.9149999999999991
aF9.8170000000000002
aF9.4659999999999993
aF12
asS'http---elitetorrent.net'
p948
(lp949
F9.0719999999999992
aF8.1069999999999993
aF6.8019999999999996
aF6.907
aF6.4219999999999997
aF6.7380000000000004
aF8.7469999999999999
aF6.484
aF5.3410000000000002
aF7.8499999999999996
asS'http---peliculasyonkis.com'
p950
(lp951
F14.199999999999999
aF13.9
aF14.199999999999999
aF14.300000000000001
aF14.199999999999999
aF14.199999999999999
aF15.800000000000001
aF13.6
aF14.4
aF14.4
asg1
(g2
tRp952
g4
(lp953
I327139
aI323849
aI331578
aI322468
aI218244
aI320111
aI323311
aI324091
aI323155
aI322901
asg6
(lp954
I1654555
aI1622602
aI1788242
aI1587483
aI1789366
aI1700565
aI1680940
aI1551804
aI1563789
aI1700532
asg8
(lp955
I295000
aI303575
aI299533
aI303173
aI299524
aI306208
aI299450
aI306327
aI299847
aI296020
asg10
(lp956
I629591
aI42609
aI606847
aI586934
aI610452
aI642500
aI716909
aI626005
aI514345
aI22805
asg12
(lp957
I696817
aI685220
aI682218
aI689005
aI692356
aI689086
aI689348
aI692780
aI686366
aI690495
asg14
(lp958
I1064477
aI1053857
aI1053551
aI1051761
aI976727
aI1046840
aI1058950
aI1007210
aI1043791
aI1054439
asg16
(lp959
I957897
aI950168
aI983108
aI965426
aI967245
aI947264
aI954281
aI866674
aI909883
aI965756
asg18
(lp960
I557888
aI391973
aI476360
aI565324
aI568288
aI556710
aI553055
aI560466
aI546474
aI465375
asg20
(lp961
I478570
aI447193
aI478374
aI490108
aI439309
aI486154
aI419073
aI262529
aI491819
aI462611
asg22
(lp962
I1148912
aI1149223
aI1152644
aI1153148
aI1153262
aI1105553
aI1153654
aI1135331
aI1149229
aI1152870
asg24
(lp963
I150376
aI154173
aI150265
aI138658
aI134815
aI137738
aI138613
aI153762
aI138598
aI138567
asg26
(lp964
I624125
aI627613
aI627778
aI624334
aI625936
aI624365
aI624258
aI627539
aI628083
aI622850
asg28
(lp965
I1254222
aI1251256
aI1261398
aI1255497
aI1138571
aI1158197
aI1509307
aI1227387
aI1143045
aI1261490
asg30
(lp966
I1628247
aI1429971
aI1440819
aI1537282
aI1416075
aI1440135
aI1415806
aI1363984
aI1333081
aI1317119
asg32
(lp967
I319321
aI318327
aI315454
aI315858
aI319198
aI319608
aI315733
aI319444
aI319566
aI315678
asg34
(lp968
I282451
aI285645
aI281895
aI285987
aI286224
aI286122
aI286255
aI286094
aI290026
aI290176
asg36
(lp969
I0
aI1257189
aI0
aI0
aI0
aI0
aI0
aI46904
aI3505
aI0
asg38
(lp970
I255550
aI252084
aI250899
aI255947
aI259569
aI252061
aI252096
aI255431
aI259098
aI252113
asg40
(lp971
I233351
aI230031
aI229682
aI229845
aI233622
aI229945
aI230006
aI233279
aI233427
aI230034
asg42
(lp972
I711894
aI718646
aI711013
aI718354
aI711434
aI714301
aI712087
aI712183
aI717973
aI714512
asg44
(lp973
I1894067
aI1894975
aI1898367
aI1821778
aI1897515
aI1895146
aI1909066
aI1898203
aI1889716
aI1893849
asg46
(lp974
I26635
aI26689
aI26657
aI26564
aI26634
aI26647
aI26584
aI26665
aI26323
aI26654
asg48
(lp975
I1333125
aI1803503
aI2501137
aI1079836
aI1212072
aI1177900
aI1974166
aI1902239
aI1576127
aI1957953
asg50
(lp976
I215865
aI252128
aI259825
aI255005
aI251984
aI251969
aI231350
aI254269
aI248188
aI259979
asg52
(lp977
I523190
aI522269
aI511721
aI511629
aI514888
aI514554
aI521874
aI511549
aI519119
aI511879
asg54
(lp978
I335577
aI342462
aI346036
aI341946
aI346005
aI349592
aI346082
aI339090
aI342610
aI349443
asg56
(lp979
I929730
aI860726
aI901813
aI930565
aI982850
aI898088
aI914312
aI954603
aI907860
aI941325
asg58
(lp980
I532593
aI548267
aI536727
aI536902
aI539673
aI540300
aI544793
aI552361
aI536807
aI536751
asg60
(lp981
I596539
aI600576
aI596537
aI592735
aI26697
aI592974
aI596021
aI592990
aI592992
aI600014
asg62
(lp982
I157978
aI170020
aI157423
aI161537
aI157847
aI158243
aI161274
aI161682
aI154201
aI153710
asg64
(lp983
I3325790
aI1940119
aI2261373
aI2384500
aI2414576
aI2073368
aI2259965
aI1887860
aI1786955
aI2667931
asg66
(lp984
I611745
aI611287
aI283399
aI214395
aI622683
aI125986
aI615555
aI619468
aI90576
aI431123
asg68
(lp985
I415046
aI465912
aI422939
aI409406
aI426614
aI334051
aI414907
aI490124
aI499563
aI406403
asg70
(lp986
I169104
aI176240
aI169226
aI169259
aI172785
aI112186
aI172555
aI176580
aI176187
aI172449
asg72
(lp987
I364557
aI364350
aI364134
aI364374
aI364433
aI364543
aI372516
aI364553
aI371378
aI364222
asg74
(lp988
I517961
aI529330
aI519700
aI525446
aI519426
aI526233
aI515244
aI507040
aI518876
aI518932
asg76
(lp989
I2227334
aI1316488
aI2166504
aI899925
aI2270555
aI1300109
asg78
(lp990
I1259868
aI1330183
aI1354264
aI1509098
aI1270955
aI1351297
aI1403574
aI1485987
aI1361130
aI1526645
asg80
(lp991
I62026
aI65723
aI69866
aI72932
aI69095
aI65846
aI65915
aI61791
aI66200
aI62309
asg82
(lp992
I544907
aI583262
aI580429
aI557281
aI727934
aI706180
aI544861
aI496021
aI485498
aI582001
asg84
(lp993
I549816
aI547239
aI551347
aI479389
aI543101
aI471844
aI538448
aI557293
aI546394
aI546432
asg86
(lp994
I597377
aI590069
aI593945
aI588285
aI585168
aI575269
aI593594
aI593814
aI589809
aI590077
asg88
(lp995
I346938
aI342621
aI339171
aI38213
aI339241
aI249542
aI337698
aI339238
aI346547
aI338608
asg90
(lp996
I310734
aI310584
aI306993
aI321968
aI307029
aI314480
aI310718
aI310743
aI222187
aI307320
asg92
(lp997
I854624
aI761108
aI718479
aI717587
aI742431
aI1220249
aI53846
aI1045752
aI112918
aI567170
asg94
(lp998
I26589
aI22981
aI26605
aI26610
aI22933
aI26521
aI26576
aI26551
aI29970
aI26589
asg96
(lp999
I1207029
aI996925
aI1066868
aI1157090
aI1152322
aI1129591
aI1084451
aI871318
aI1116723
aI501510
asg98
(lp1000
I482000
aI514685
aI596958
aI545607
aI490493
aI393001
aI749507
aI529591
aI530549
aI694104
asg100
(lp1001
I30205
aI427579
aI496382
aI484720
aI496235
aI485095
aI487926
aI483832
aI484846
aI491871
asg102
(lp1002
I835949
aI840269
aI789230
aI820615
aI824653
aI819741
aI823267
aI816759
aI817132
aI820224
asg104
(lp1003
I289296
aI356621
aI356961
aI357039
aI356524
aI361271
aI357654
aI356800
aI357460
aI356900
asg106
(lp1004
I403576
aI407034
aI406482
aI395473
aI399851
aI392131
aI400051
aI399902
aI402948
aI426655
asg108
(lp1005
I741536
aI741116
aI741112
aI737604
aI740999
aI741319
aI749828
aI737904
aI688960
aI724541
asg110
(lp1006
I326528
aI330580
aI325179
aI158223
aI322851
aI322983
aI330275
aI322863
aI307538
aI244192
asg112
(lp1007
I756351
aI813361
aI744339
aI29906
aI849006
aI784688
aI852726
aI784304
aI759576
aI849128
asg114
(lp1008
I223090
aI230848
aI230124
aI226562
aI238013
aI234164
aI229959
aI230564
aI230278
aI226597
asg116
(lp1009
I1390277
aI1328214
aI1164687
aI1236559
aI1257783
aI1264878
aI1014376
aI1128331
aI1282214
aI1275343
asg118
(lp1010
I113695
aI106156
aI106285
aI109280
aI105147
aI106267
aI106218
aI106384
aI109961
aI105188
asg120
(lp1011
I257863
aI278011
aI273574
aI277113
aI285959
aI285081
aI277698
aI273742
aI277870
aI273431
asg122
(lp1012
I1371763
aI1295874
aI1318604
aI1236889
aI1412496
aI1374778
aI1435941
aI1436495
aI1267173
aI1159903
asg124
(lp1013
I57820
aI46238
aI54052
aI53878
aI49913
aI49674
aI46374
aI46257
aI34480
aI50060
asg126
(lp1014
I355740
aI347971
aI348004
aI352462
aI335737
aI352090
aI348421
aI348151
aI351127
aI339829
asg128
(lp1015
I1336655
aI1391712
aI1048693
aI1348096
aI315891
aI1330442
aI1355908
aI1000494
aI1352047
aI1338275
asg130
(lp1016
I933342
aI929787
aI925203
aI925408
aI930169
aI933582
aI921294
aI929565
aI933737
aI922197
asg132
(lp1017
I601550
aI656769
aI672680
aI616628
aI597802
aI641369
aI338018
aI606156
aI585862
aI596914
asg134
(lp1018
I178518
aI294521
aI633907
aI661899
aI1186186
aI298646
aI700385
aI347483
aI315260
aI309018
asg136
(lp1019
I1052437
aI1139104
aI1110289
aI1083381
aI994327
aI998950
aI1286986
aI850828
aI1119272
aI1058910
asg138
(lp1020
I362868
aI359265
aI363038
aI366324
aI366600
aI366651
aI362791
aI363365
aI357935
aI363157
asg140
(lp1021
I1107902
aI1232040
aI1224164
aI1227426
aI1215472
aI1215839
aI1226867
aI1228633
aI1227317
aI1176958
asg142
(lp1022
I1000882
aI1039322
aI1103086
aI1060178
aI1099906
aI1095014
aI1060526
aI992280
aI1013650
aI1090744
asg144
(lp1023
I245338
aI248974
aI245422
aI240978
aI221349
aI241339
aI241062
aI245233
aI253319
aI245048
asg146
(lp1024
I230217
aI230139
aI225174
aI230153
aI226663
aI238163
aI173803
aI234200
aI225143
aI233632
asg148
(lp1025
I385981
aI409353
aI421806
aI420313
aI408536
aI425182
aI427729
aI381298
aI393107
aI429164
asg150
(lp1026
I485313
aI529796
aI475307
aI529144
aI544479
aI541568
aI490797
aI533508
aI536893
aI533198
asg152
(lp1027
I490915
aI487389
aI483743
aI494848
aI490931
aI486992
aI489946
aI491572
aI490269
aI484232
asg154
(lp1028
I1373742
aI1373355
aI1375052
aI1362688
aI1369470
aI1361975
aI1386702
aI1370917
aI1398216
aI1342250
asg156
(lp1029
I284347
aI284959
aI173559
aI332571
aI288326
aI287892
aI281073
aI284712
aI298831
aI331976
asg158
(lp1030
I282630
aI285856
aI278687
aI285776
aI278840
aI279105
aI275472
aI289418
aI281926
aI285198
asg160
(lp1031
I809081
aI705811
aI733437
aI823787
aI745652
aI735932
aI779805
aI839752
aI763337
aI740942
asg162
(lp1032
I416616
aI405925
aI405858
aI405882
aI420338
aI417227
aI416790
aI408986
aI420203
aI413817
asg164
(lp1033
I1156489
aI1185765
aI1174494
aI999507
aI1368486
aI1119882
aI1164479
aI1183411
aI1243065
aI1155765
asg166
(lp1034
I323402
aI331297
aI338805
aI337941
aI335299
aI414833
aI330977
aI341735
aI331340
aI327643
asg168
(lp1035
I788883
aI652045
aI859776
aI655481
aI853670
aI242904
aI326492
aI866756
aI952025
aI507668
asg170
(lp1036
I503201
aI389982
aI510427
aI496258
aI390310
aI440802
aI26618
aI436930
aI475822
aI390119
asg172
(lp1037
I173752
aI177636
aI177800
aI161812
aI177768
aI178074
aI141448
aI177793
aI177819
aI177564
asg174
(lp1038
I22957
aI26528
aI22247
aI22942
aI22978
aI22420
aI22404
aI26540
aI22928
aI26530
asg176
(lp1039
I496160
aI516033
aI500793
aI489402
aI504724
aI508316
aI500035
aI492343
aI448174
aI502405
asg178
(lp1040
I542362
aI538369
aI550087
aI536860
aI541475
aI548804
aI538517
aI538249
aI540916
aI502089
asg180
(lp1041
I250089
aI250384
aI250421
aI246187
aI246791
aI250455
aI242987
aI250180
aI254214
aI254350
asg182
(lp1042
I392641
aI390712
aI397213
aI390716
aI386925
aI390087
aI393036
aI390962
aI387438
aI390243
asg184
(lp1043
I223732
aI223714
aI226466
aI223786
aI223397
aI227500
aI227273
aI223011
aI246676
aI227085
asg186
(lp1044
I170216
aI162782
aI162090
aI166455
aI30402
aI166171
aI161806
aI77945
aI163037
aI166715
asg188
(lp1045
I113224
aI113789
aI117052
aI117208
aI121259
aI113205
aI117228
aI117212
aI120636
aI117421
asg190
(lp1046
I423739
aI419912
aI463229
aI149314
aI423579
aI423294
aI420138
aI62403
aI416306
aI375722
asg192
(lp1047
I150681
aI161899
aI154213
aI154696
aI150819
aI154198
aI154195
aI150705
aI134277
aI150077
asg194
(lp1048
I193124
aI192905
aI193379
aI184695
aI197211
aI197442
aI193516
aI196086
aI46428
aI184807
asg196
(lp1049
I1076005
aI1163344
aI1143240
aI1132800
aI26710
aI1216167
aI1151565
aI1230531
aI1150510
aI1172448
asg198
(lp1050
I296611
aI308215
aI292505
aI304205
aI156870
aI316565
aI300317
aI260763
aI297227
aI296503
asg200
(lp1051
I568937
aI560652
aI366224
aI517212
aI576289
aI494646
aI569754
aI382292
aI441155
aI517310
asg202
(lp1052
I541923
aI735876
aI537197
aI558736
aI22944
aI698742
aI598131
aI694184
aI375063
aI326924
asg204
(lp1053
I106015
aI106099
aI109851
aI106074
aI104485
aI109104
aI105809
aI106098
aI105975
aI117083
asg206
(lp1054
I425585
aI422488
aI418571
aI421965
aI422399
aI390953
aI391107
aI391269
aI422119
aI391309
asg208
(lp1055
I559063
aI548557
aI548186
aI551659
aI551464
aI548881
aI548322
aI548879
aI23017
aI520783
asg210
(lp1056
I30910
aI23030
aI23013
aI30739
aI22725
aI22827
aI22907
aI30979
aI22816
aI23012
asg212
(lp1057
I706279
aI33926
aI704390
aI121786
aI713054
aI708436
aI708569
aI705511
aI42554
aI346447
asg214
(lp1058
I206383
aI198954
aI197900
aI202575
aI202453
aI199007
aI202544
aI202243
aI206748
aI198955
asg216
(lp1059
I914983
aI922879
aI919077
aI930832
aI908038
aI937057
aI898300
aI886033
aI921876
aI926419
asg218
(lp1060
I912605
aI876097
aI916111
aI911149
aI914179
aI915579
aI908032
aI891880
aI912006
aI911579
asg220
(lp1061
I1280399
aI1102419
aI1257863
aI1295908
aI1220376
aI1233549
aI1082881
aI673090
aI1236562
aI1229406
asg222
(lp1062
I472704
aI481131
aI477344
aI437116
aI477358
aI477024
aI250145
aI483991
aI473697
aI473313
asg224
(lp1063
I1348058
aI1356383
aI1294625
aI1372154
aI1322368
aI1325801
aI1308334
aI1290069
aI1536493
aI1297711
asg226
(lp1064
I22762
aI23067
aI22999
aI22856
aI22972
aI22886
aI23042
aI22667
aI22916
aI22666
asg228
(lp1065
I1165384
aI585338
aI458484
aI606983
aI849186
aI573764
aI509878
aI999570
aI494715
aI457455
asg230
(lp1066
I472478
aI466176
aI457714
aI432861
aI454742
aI441321
aI517041
aI450556
aI419283
aI432894
asg232
(lp1067
I398906
aI402210
aI22896
aI406541
aI402059
aI402452
aI406187
aI409385
aI405751
aI402492
asg234
(lp1068
I26451
aI518772
aI519064
aI536147
aI526460
aI518789
aI518562
aI526190
aI519294
aI518841
asg236
(lp1069
I314763
aI286464
aI314646
aI26488
aI318576
aI314026
aI299329
aI314521
aI314249
aI306282
asg238
(lp1070
I604591
aI594032
aI589858
aI594046
aI597375
aI600501
aI608290
aI608314
aI597433
aI594115
asg240
(lp1071
I26580
aI22998
aI26552
aI26600
aI26570
aI22588
aI26546
aI26579
aI22837
aI22175
asg242
(lp1072
I1209376
aI1387912
aI1227815
aI1204293
aI1224751
aI237583
aI1224968
aI1220546
aI1240582
aI1205276
asg244
(lp1073
I617719
aI1183612
aI1107056
aI1096600
aI1092387
aI1095684
aI1092537
aI1079912
aI1096142
aI1115402
asg246
(lp1074
I492240
aI491062
aI495092
aI499730
aI492068
aI499667
aI499405
aI496172
aI500388
aI499772
asg248
(lp1075
I2713376
aI2704820
aI2701549
aI2716928
aI2736683
aI2721371
aI1967122
aI2714415
aI2740130
aI2728214
asg250
(lp1076
I539358
aI546528
aI38327
aI117984
aI530402
aI546236
aI93990
aI542108
aI30277
aI550627
asg252
(lp1077
I465787
aI465640
aI461951
aI473735
aI470150
aI465901
aI473919
aI465832
aI470430
aI465719
asg254
(lp1078
I1014630
aI1042295
aI1670887
aI1128334
aI1101927
aI1135925
aI1023464
aI927366
aI501403
aI1166296
asg256
(lp1079
I30763
aI26700
aI26448
aI26742
aI37616
aI38848
aI26681
aI26809
aI26664
aI26818
asg258
(lp1080
I257863
aI241854
aI254074
aI262489
aI253716
aI261863
aI254452
aI272324
aI254489
aI253379
asg260
(lp1081
I1540898
aI1695647
aI1630288
aI1655709
aI1600556
aI1704518
aI1739598
aI1657768
aI1597324
aI1719622
asg262
(lp1082
I22179
aI22922
aI22420
aI26453
aI26580
aI26498
aI26613
aI26566
aI22999
aI22286
asg264
(lp1083
I562909
aI497337
aI501443
aI445836
aI558324
aI512694
aI486686
aI579025
aI26438
aI582659
asg266
(lp1084
I655185
aI659612
aI660083
aI658807
aI656642
aI659836
aI654681
aI655454
aI659923
aI659124
asg268
(lp1085
I849214
aI632079
aI568063
aI647727
aI629735
aI856910
aI657061
aI643427
aI806115
aI745373
asg270
(lp1086
I411456
aI437390
aI37624
aI446606
aI439368
aI298615
aI438351
aI294802
aI452578
aI441817
asg272
(lp1087
I408463
aI303611
aI496458
aI295759
aI206092
aI242928
aI242702
aI335709
aI222976
aI303628
asg274
(lp1088
I200340
aI200169
aI207383
aI211315
aI200313
aI203561
aI203912
aI207653
aI203712
aI199851
asg276
(lp1089
I290353
aI299037
aI291164
aI297460
aI286442
aI291125
aI294938
aI728444
aI286323
aI286753
asg278
(lp1090
I463327
aI499609
aI539467
aI475644
aI467357
aI472127
aI562956
aI563383
aI562903
aI502760
asg280
(lp1091
I74291
aI74318
aI78271
aI74322
aI73009
aI74349
aI74285
aI70692
aI74285
aI74309
asg282
(lp1092
I670193
aI491902
aI904587
aI530966
aI507324
aI507568
aI519713
aI515573
aI507223
aI507689
asg284
(lp1093
I2041628
aI2122154
aI2057069
aI2129459
aI2133948
aI2068905
aI1965248
aI2089186
aI2136569
aI2088458
asg286
(lp1094
I157149
aI160876
aI160838
aI156910
aI159511
aI160887
aI160125
aI160841
aI144617
aI157342
asg288
(lp1095
I638491
aI631147
aI637995
aI634847
aI638317
aI642095
aI631259
aI634553
aI634368
aI638259
asg290
(lp1096
I593125
aI599990
aI596863
aI592834
aI596746
aI607789
aI104780
aI535324
aI608441
aI607546
asg292
(lp1097
I521500
aI518598
aI529877
aI520633
aI529677
aI533189
aI521388
aI26388
aI517249
aI522490
asg294
(lp1098
I452846
aI449876
aI459763
aI455797
aI448772
aI449834
aI453286
aI448651
aI456608
aI448982
asg296
(lp1099
I970966
aI1183437
aI1096034
aI1209998
aI1004624
aI1242637
aI1219655
aI973839
aI987571
aI1217108
asg298
(lp1100
I293846
aI519009
aI232281
aI268250
aI515184
aI85004
aI77115
aI494998
aI530160
aI244539
asg300
(lp1101
I23016
aI861187
aI879905
aI784396
aI454008
aI993752
aI614683
aI816619
aI856806
aI747899
asg302
(lp1102
I26299
aI22743
aI22962
aI22398
aI22898
aI23022
aI22747
aI1220
aI22782
asg304
(lp1103
I50376
aI859822
aI661951
aI862640
aI434548
aI855308
aI606024
aI861852
aI846646
aI594086
asg306
(lp1104
I230215
aI230438
aI227006
aI230335
aI226840
aI189414
aI242073
aI237395
aI230126
aI230671
asg308
(lp1105
I147687
aI22964
aI22911
aI147262
aI93716
aI147694
aI143937
aI22850
aI147527
aI147562
asg310
(lp1106
I710466
aI651100
aI683561
aI583124
aI693943
aI594885
aI667024
aI631615
aI599897
aI650929
asg312
(lp1107
I711853
aI708624
aI699947
aI711824
aI712292
aI626997
aI502162
aI41357
aI711731
aI712302
asg314
(lp1108
I179079
aI195724
aI202574
aI197864
aI198966
aI195526
aI199458
aI194463
aI197741
aI195637
asg316
(lp1109
I1228775
aI1712036
aI1072479
aI1888433
aI1217813
aI1586539
aI1141152
aI1190579
aI1376183
aI1198081
asg318
(lp1110
I1248626
aI1244054
aI1245689
aI1245077
aI1188057
aI1251458
aI1252000
aI1248331
aI1225038
aI1241604
asg320
(lp1111
I437105
aI440302
aI443233
aI440352
aI22385
aI440921
aI26581
aI440237
aI444343
aI440193
asg322
(lp1112
I1890496
aI1943858
aI1595576
aI1579071
aI1993693
aI1853512
aI1955665
aI1721324
aI1982505
aI1882386
asg324
(lp1113
I328999
aI292006
aI320404
aI285428
aI289002
aI289259
aI296388
aI325000
aI295710
aI289102
asg326
(lp1114
I915717
aI1406333
aI931180
aI919695
aI1286123
aI915517
aI920154
aI919715
aI1138580
aI1933274
asg328
(lp1115
I1499942
aI1661335
aI1595079
aI1635001
aI1637895
aI1320216
aI1312539
aI1394300
aI1606161
aI1297963
asg330
(lp1116
I286999
aI291042
aI283802
aI279480
aI279492
aI287639
aI283613
aI283670
aI290463
aI287150
asg332
(lp1117
I259728
aI262568
aI263096
aI259064
aI259667
aI274518
aI259239
aI266703
aI267042
aI259485
asg334
(lp1118
I761518
aI690114
aI673173
aI772194
aI690026
aI639293
aI745431
aI675028
aI689731
aI697451
asg336
(lp1119
I232963
aI192650
aI196141
aI204095
aI216174
aI196389
aI200886
aI219422
aI204803
aI192451
asg338
(lp1120
I22858
aI86520
aI93944
aI90102
aI86489
aI90481
aI89718
aI86564
aI90198
aI82153
asg340
(lp1121
I1370212
aI1445009
aI1576296
aI1638595
aI1095038
aI1502636
aI1544269
aI1883515
aI1606506
aI1678972
asg342
(lp1122
I557804
aI518659
aI560326
aI460651
aI571267
aI483303
aI265225
aI474152
aI448564
aI514073
asg344
(lp1123
I487699
aI487440
aI483635
aI26415
aI483755
aI476909
aI480638
aI406467
aI476991
aI483519
asg346
(lp1124
I311190
aI287656
aI291510
aI318274
aI307669
aI314501
aI311062
aI311219
aI310922
aI315469
asg348
(lp1125
I241267
aI240737
aI241696
aI245030
aI241576
aI245052
aI229400
aI245428
aI241354
aI245037
asg350
(lp1126
I118469
aI117284
aI125795
aI118187
aI114605
aI114543
aI114750
aI118223
aI118184
aI114614
asg352
(lp1127
I26192
aI22347
aI26532
aI22843
aI22779
aI26529
aI30544
aI26663
aI22244
aI26552
asg354
(lp1128
I343949
aI222464
aI225428
aI22871
aI271547
aI492203
aI219289
aI267849
aI287490
aI537878
asg356
(lp1129
I1439846
aI1607090
aI1498942
aI1522301
aI1500498
aI1456759
aI1456937
aI1536318
aI1460358
aI1507984
asg358
(lp1130
I1248138
aI929079
aI1182016
aI916406
aI925396
aI930960
aI586959
aI291275
aI234130
aI919555
asg360
(lp1131
I825982
aI1293328
aI955222
aI1229052
aI951075
aI946112
aI974553
aI1241535
aI1212021
aI929574
asg362
(lp1132
I141994
aI135114
aI142447
aI134917
aI142643
aI142583
aI135099
aI142082
aI134958
aI134869
asg364
(lp1133
I61292
aI65402
aI65071
aI72954
aI64664
aI68918
aI61139
aI68841
aI61020
aI29965
asg366
(lp1134
I1073190
aI1088565
aI1042096
aI1100632
aI972357
aI1076070
aI1137091
aI949080
aI1077086
aI1151016
asg368
(lp1135
I363102
aI371499
aI378898
aI367868
aI385937
aI382031
aI359722
aI374684
aI370648
aI378117
asg370
(lp1136
I153189
aI157672
aI153923
aI142384
aI154096
aI150233
aI158147
aI154198
aI153972
aI150482
asg372
(lp1137
I26549
aI22972
aI21399
aI22961
aI26546
aI26743
aI30651
aI22945
aI26506
aI30667
asg374
(lp1138
I3905264
aI4452936
aI4137576
aI4465073
aI4354777
aI323166
aI4436197
aI4218144
aI4268670
aI4159081
asg376
(lp1139
I551198
aI734419
aI622217
aI539275
aI522658
aI700112
aI606395
aI675433
aI446599
aI494931
asg378
(lp1140
I2303635
aI8601553
aI8856671
aI5732945
aI6288744
aI4416843
aI9335775
aI2430275
aI6800398
aI4042492
asg380
(lp1141
I803298
aI802925
aI803566
aI811785
aI810404
aI807457
aI802588
aI818190
aI811854
aI807631
asg382
(lp1142
I234053
aI234014
aI226922
aI237438
aI234251
aI237513
aI234138
aI233998
aI230319
aI230139
asg384
(lp1143
I94187
aI102052
aI97667
aI90037
aI94063
aI94196
aI94226
aI90719
aI90695
aI90693
asg386
(lp1144
I41616
aI109503
aI38391
aI363282
aI264926
aI60442
aI94202
aI316438
aI363453
aI101537
asg388
(lp1145
I377381
aI210180
aI361922
aI172816
aI53024
aI358691
aI634671
aI328776
aI358010
aI49760
asg390
(lp1146
I30275
aI42169
aI30612
aI45702
aI30394
aI42174
aI30286
aI41816
aI41822
aI26751
asg392
(lp1147
I535872
aI536730
aI535493
aI539106
aI536152
aI61228
aI536469
aI536285
aI536393
aI536619
asg394
(lp1148
I22825
aI26573
aI22576
aI23023
aI26581
aI22329
aI22726
aI26519
aI22552
aI26549
asg396
(lp1149
I453957
aI461580
aI447188
aI461852
aI447628
aI450614
aI454698
aI458233
aI447617
aI454758
asg398
(lp1150
I705060
aI883035
aI703984
aI673817
aI887543
aI643596
aI643683
aI547147
aI829342
aI654658
asg400
(lp1151
I1035175
aI1291026
aI1102908
aI1490191
aI1100933
aI1416674
aI1399647
aI1055292
aI1251863
aI1325868
asg402
(lp1152
I46194
aI42506
aI42474
aI42488
aI42567
aI42500
aI42370
aI42502
aI42115
aI46378
asg404
(lp1153
I210821
aI214374
aI210736
aI210747
aI214416
aI211022
aI214278
aI210987
aI214303
aI214126
asg406
(lp1154
I225798
aI221271
aI225090
aI221330
aI218010
aI225501
aI224969
aI228650
aI229616
aI225431
asg408
(lp1155
I939577
aI970534
aI947687
aI995457
aI991758
aI1015283
aI970065
aI943127
aI987036
aI1025210
asg410
(lp1156
I4142968
aI4139172
aI3798611
aI4479526
aI3852317
aI3865868
aI4115482
aI4394574
aI4359429
aI4386281
asg412
(lp1157
I1316735
aI1306832
aI1280736
aI1315812
aI1178078
aI1314439
aI1255390
aI1314804
aI1314235
aI1213801
asg414
(lp1158
I200726
aI204705
aI192301
aI197181
aI200548
aI208295
aI202260
aI192816
aI199114
aI192505
asg416
(lp1159
I26606
aI23029
aI26644
aI22701
aI26605
aI26656
aI26658
aI22426
aI26621
aI22656
asg418
(lp1160
I118501
aI118330
aI122075
aI118298
aI118720
aI126086
aI122238
aI122304
aI117180
aI118461
asg420
(lp1161
I494734
aI495349
aI491891
aI418963
aI503221
aI492021
aI488404
aI503298
aI418423
aI503443
asg422
(lp1162
I164959
aI169416
aI172818
aI169053
aI203549
aI204488
aI173118
aI183832
aI149056
aI168970
asg424
(lp1163
I186117
aI161454
aI161697
aI165701
aI22388
aI164814
aI186199
aI169362
aI160969
aI181668
asg426
(lp1164
I114528
aI110847
aI114491
aI114409
aI114560
aI114522
aI114562
aI98740
aI114492
aI114540
asg428
(lp1165
I1531307
aI1460426
aI1470854
aI213541
aI1487710
aI1516950
aI1449873
aI1395755
aI1472529
aI1419603
asg430
(lp1166
I1051853
aI1024946
aI1036404
aI1069005
aI1072761
aI964318
aI1063999
aI964982
aI1032854
aI1066739
asg432
(lp1167
I223442
aI221295
aI228537
aI224541
aI221237
aI220940
aI220340
aI223572
aI224650
aI225011
asg434
(lp1168
I450766
aI450926
aI458732
aI450991
aI450840
aI454316
aI450660
aI450752
aI446977
aI454175
asg436
(lp1169
I1139709
aI1155122
aI1122377
aI1146311
aI1146840
aI1143174
aI1150274
aI1146755
aI1149718
aI1139846
asg438
(lp1170
I26601
aI26604
aI26611
aI22996
aI22872
aI26426
aI26596
aI37951
aI34240
aI26714
asg440
(lp1171
I3017756
aI3000954
aI2351274
aI2809863
aI2963346
aI1612016
aI2401348
aI2986585
aI2174795
aI2471925
asg442
(lp1172
I460900
aI460346
aI461334
aI439078
aI460967
aI460233
aI460996
aI461085
aI460330
aI467579
asg444
(lp1173
I339807
aI272536
aI348498
aI343221
aI335683
aI339840
aI335029
aI332810
aI339494
aI339805
asg446
(lp1174
I217925
aI217822
aI221487
aI217819
aI217800
aI225533
aI217868
aI218158
aI189646
aI229681
asg448
(lp1175
I53956
aI475838
aI472505
aI472847
aI472662
aI476544
aI472242
aI473231
aI472699
aI511753
asg450
(lp1176
I164751
aI164895
aI164955
aI168256
aI168275
aI168170
aI164752
aI176338
aI171679
aI168433
asg452
(lp1177
I0
aI0
aI0
aI0
aI0
aI0
aI0
aI0
aI0
aI0
asg454
(lp1178
I406199
aI348662
aI894887
aI390296
aI417900
aI572426
aI992237
aI354468
aI438882
aI575503
asg456
(lp1179
I251717
aI251918
aI255719
aI251910
aI255636
aI252004
aI255550
aI251888
aI255797
aI255740
asg458
(lp1180
I616303
aI605535
aI605472
aI606055
aI601681
aI609677
aI609484
aI605479
aI609567
aI612789
asg460
(lp1181
I102936
aI106622
aI102103
aI102761
aI109904
aI102228
aI106543
aI109674
aI102239
aI106456
asg462
(lp1182
I217241
aI349276
aI217756
aI401799
aI216610
aI222169
aI340982
aI344068
aI213470
aI305431
asg464
(lp1183
I448598
aI336705
aI1764602
aI1363961
aI1584336
aI1387863
aI1625735
aI1699590
aI1316277
aI1260864
asg466
(lp1184
I93356
aI86052
aI89553
aI85357
aI89546
aI85997
aI89549
aI85966
aI89848
aI86031
asg468
(lp1185
I442240
aI438119
aI438571
aI435124
aI438960
aI438599
aI442797
aI434893
aI443190
aI442043
asg470
(lp1186
I137287
aI133807
aI137075
aI141063
aI137454
aI137295
aI137502
aI137716
aI133537
aI137560
asg472
(lp1187
I407282
aI388178
aI340009
aI376360
aI412658
aI427731
aI412503
aI416127
aI412687
aI380811
asg474
(lp1188
I2948418
aI2857071
aI2941111
aI2930558
aI2883365
aI2937606
aI2937712
aI2895545
aI2700628
aI2953739
asg476
(lp1189
I620794
aI625092
aI632897
aI628758
aI632583
aI628889
aI617698
aI644983
aI621290
aI617361
asg478
(lp1190
I1907830
aI1887369
aI1842394
aI1886181
aI1793361
aI1858279
aI1877725
aI1787827
aI1890214
aI1912756
asg480
(lp1191
I241357
aI201089
aI258560
aI253547
aI390402
aI233392
aI213872
aI213473
aI213204
aI196899
asg482
(lp1192
I106538
aI110372
aI106905
aI110529
aI106860
aI106955
aI117980
aI106907
aI106849
aI106949
asg484
(lp1193
I383230
aI395352
aI482449
aI434801
aI407231
aI434802
aI438412
aI430885
aI351157
aI414551
asg486
(lp1194
I230271
aI226599
aI229638
aI229933
aI226064
aI230476
aI234172
aI233618
aI233958
aI230432
asg488
(lp1195
I137532
aI209263
aI209529
aI217457
aI220848
aI249154
aI217437
aI141761
aI209683
aI213627
asg490
(lp1196
I1762977
aI1696356
aI1742790
aI1746482
aI1743556
aI1802007
aI1747107
aI1747903
aI1769138
aI1802662
asg492
(lp1197
I751755
aI747978
aI715483
aI758978
aI751328
aI755168
aI750993
aI755179
aI769653
aI761901
asg494
(lp1198
I1407848
aI1462206
aI949925
aI1403856
aI1402484
aI49736
aI1448669
aI1237371
aI972408
aI288884
asg496
(lp1199
I26519
aI26538
aI26532
aI26528
aI26528
aI22344
aI26527
aI26552
aI26532
aI26528
asg498
(lp1200
I525911
aI542325
aI523882
aI523707
aI535074
aI532527
aI507216
aI526669
aI508644
aI506876
asg500
(lp1201
I1246919
aI1342154
aI1356182
aI1344804
aI1343174
aI1326041
aI1314656
aI1301741
aI1310354
aI1329433
asg502
(lp1202
I360730
aI353836
aI373246
aI353329
aI357109
aI357077
aI363935
aI364021
aI357387
aI357368
asg504
(lp1203
I702487
aI702236
aI702209
aI693939
aI697777
aI702391
aI685546
aI697944
aI705756
aI705980
asg506
(lp1204
I1201943
aI1186294
aI1055115
aI1191419
aI1180136
aI1127765
aI1193408
aI1172481
aI1186280
aI1183098
asg508
(lp1205
I541752
aI496984
aI493533
aI536670
aI505684
aI509159
aI501208
aI486337
aI497091
aI501777
asg510
(lp1206
I303055
aI292132
aI291688
aI304446
aI296565
aI292971
aI296449
aI300828
aI296613
aI296452
asg512
(lp1207
I22890
aI22253
aI22240
aI22233
aI26539
aI22926
aI22631
aI22241
aI26464
aI23009
asg514
(lp1208
I669744
aI677636
aI701709
aI657854
aI636806
aI656105
aI573237
aI666775
aI673625
aI680381
asg516
(lp1209
I267069
aI267144
aI270824
aI267422
aI269239
aI270884
aI270757
aI270663
aI270423
aI270755
asg518
(lp1210
I359620
aI359223
aI362672
aI351710
aI355178
aI351208
aI351147
aI355103
aI350596
aI351570
asg520
(lp1211
I832200
aI823765
aI26625
aI827104
aI808274
aI411037
aI831797
aI778108
aI826771
aI770788
asg522
(lp1212
I694273
aI687578
aI690615
aI684081
aI694732
aI687638
aI687254
aI687654
aI694004
aI743668
asg524
(lp1213
I279539
aI280136
aI280144
aI280277
aI288130
aI291622
aI279802
aI280288
aI283925
aI280236
asg526
(lp1214
I263238
aI263321
aI263342
aI270628
aI263401
aI270863
aI263508
aI266907
aI267314
aI263487
asg528
(lp1215
I300740
aI303418
aI295908
aI274938
aI300986
aI300654
aI312118
aI301080
aI308377
aI304145
asg530
(lp1216
I318800
aI313854
aI321934
aI322421
aI318648
aI318420
aI318492
aI314898
aI326248
aI318649
asg532
(lp1217
I26739
aI26579
aI22351
aI26742
aI22769
aI26525
aI22920
aI22711
aI26581
aI26603
asg534
(lp1218
I1120311
aI222500
aI1256537
aI1163468
aI1448564
aI1435461
aI1368771
aI1298028
aI1431155
aI1427458
asg536
(lp1219
I3038367
aI1926774
aI1804295
aI3240184
aI3846447
aI2811943
aI3180231
aI1371746
aI3364046
aI1428372
asg538
(lp1220
I1021032
aI1017801
aI976585
aI1029814
aI1028845
aI1026808
aI908248
aI1029822
aI1031871
aI978905
asg540
(lp1221
I447740
aI444111
aI439322
aI443431
aI450921
aI446856
aI419671
aI443898
aI447448
aI439712
asg542
(lp1222
I1102534
aI1402076
aI1495406
aI1453010
aI1468521
aI1438004
aI1363352
aI1503623
aI1484421
aI1491131
asg544
(lp1223
I1484042
aI1510197
aI1507979
aI1453974
aI1454842
aI1428537
aI1512389
aI1494612
aI1470379
aI1484089
asg546
(lp1224
I1182391
aI1348811
aI1185759
aI1163787
aI1645732
aI1287194
aI1397946
aI1241418
aI1260407
aI1351520
asg548
(lp1225
I802790
aI538835
aI573943
aI602460
aI589282
aI609605
aI561574
aI566038
aI534884
aI573841
asg550
(lp1226
I476129
aI452648
aI476142
aI455809
aI433914
aI468534
aI2095481
aI440477
aI475270
aI468343
asg552
(lp1227
I214403
aI218967
aI222647
aI222655
aI218978
aI222529
aI219076
aI222647
aI234216
aI219229
asg554
(lp1228
I1209273
aI1225847
aI1219390
aI1109875
aI1104188
aI1226592
aI1214699
aI1230481
aI1224013
aI1220134
asg556
(lp1229
I1501600
aI1514991
aI1489512
aI1504586
aI1487467
aI1482012
aI1601493
aI1391227
aI1505485
aI1446572
asg558
(lp1230
I309250
aI349320
aI385195
aI346764
aI386153
aI450497
aI310752
aI350035
aI350662
aI346706
asg560
(lp1231
I246567
aI229106
aI249174
aI50260
aI585164
aI46599
aI297693
aI306158
aI486281
aI81623
asg562
(lp1232
I448814
aI450048
aI413370
aI433786
aI361989
aI418704
aI422502
aI490396
aI484898
aI584572
asg564
(lp1233
I156994
aI161098
aI157405
aI157621
aI157663
aI173201
aI157756
aI158090
aI158135
aI157511
asg566
(lp1234
I269736
aI267058
aI269849
aI274539
aI270120
aI273378
aI269945
aI270474
aI269594
aI274363
asg568
(lp1235
I405516
aI358070
aI401769
aI328726
aI414466
aI398357
aI401920
aI405027
aI398291
aI402628
asg570
(lp1236
I881062
aI925098
aI835798
aI1027051
aI1011329
aI916679
aI1052712
aI884024
aI892047
aI826955
asg572
(lp1237
I700629
aI700504
aI722201
aI712238
aI641409
aI675431
aI720222
aI707485
aI716024
aI687339
asg574
(lp1238
I22957
aI265750
aI157452
aI126869
aI130100
aI273512
aI262126
aI261757
aI30354
aI258176
asg576
(lp1239
I198406
aI194437
aI190378
aI198407
aI210086
aI194624
aI194616
aI191032
aI194613
aI190941
asg578
(lp1240
I564180
aI594634
aI568522
aI604475
aI583983
aI567421
aI608583
aI603678
aI579162
aI607980
asg580
(lp1241
I451993
aI448930
aI456037
aI448729
aI444914
aI448770
aI452246
aI452073
aI445533
aI455738
asg582
(lp1242
I160458
aI164499
aI172039
aI164597
aI152455
aI164196
aI160451
aI167087
aI163881
aI160714
asg584
(lp1243
I430974
aI463990
aI467159
aI467125
aI467453
aI463824
aI471183
aI467666
aI470944
aI465855
asg586
(lp1244
I449492
aI472777
aI414948
aI457461
aI245285
aI541858
aI343213
aI2255800
aI2784814
aI2757685
asg588
(lp1245
I247666
aI247321
aI247455
aI247576
aI247645
aI247573
aI239531
aI247512
aI247734
aI247509
asg590
(lp1246
I1405039
aI1331401
aI1140169
aI1391629
aI872018
aI1125475
aI871971
aI1139328
aI784267
aI883677
asg592
(lp1247
I755371
aI857376
aI743205
aI715377
aI730476
aI834334
aI746204
aI814433
aI731055
aI698017
asg594
(lp1248
I225668
aI181106
aI228664
aI225546
aI226251
aI216596
aI229481
aI225538
aI229322
aI232666
asg596
(lp1249
I1435233
aI1452059
aI1420641
aI1420955
aI1400824
aI1424512
aI1429055
aI1354045
aI1428459
aI1428122
asg598
(lp1250
I456026
aI460235
aI291509
aI457319
aI460635
aI457196
aI459392
aI460816
aI515607
aI456044
asg600
(lp1251
I850647
aI914490
aI1704117
aI1117433
aI930218
aI1249944
aI599894
aI523759
aI559556
aI531067
asg602
(lp1252
I98308
aI94702
aI94705
aI94849
aI98496
aI98666
aI94550
aI94738
aI94481
aI94717
asg604
(lp1253
I719782
aI721156
aI723995
aI711882
aI716443
aI712291
aI716669
aI727521
aI674371
aI708375
asg606
(lp1254
I74460
aI26566
aI70825
aI70794
aI26560
aI22932
aI26400
aI22812
aI22709
aI70737
asg608
(lp1255
I1447791
aI1450527
aI1459865
aI1463421
aI1463192
aI1430183
aI1508667
aI1458695
aI1463935
aI1334877
asg610
(lp1256
I181289
aI185287
aI185218
aI185622
aI180797
aI184844
aI62682
aI25802
aI181531
aI184282
asg612
(lp1257
I411745
aI551794
aI562610
aI26457
aI559145
aI547984
aI551010
aI549120
aI559808
aI560372
asg614
(lp1258
I22699
aI23010
aI22993
aI23004
aI26581
aI26582
aI23007
aI26567
aI22895
aI22327
asg616
(lp1259
I99234
aI98711
aI99320
aI102715
aI102754
aI98883
aI102805
aI126971
aI102714
aI99095
asg618
(lp1260
I0
aI0
aI0
aI0
asg620
(lp1261
I22962
aI22192
aI22800
aI22868
aI22611
aI22962
aI26145
aI22721
aI22966
aI22722
asg622
(lp1262
I649065
aI652432
aI651738
aI652737
aI649469
aI595092
aI635881
aI656867
aI653197
aI660031
asg624
(lp1263
I773364
aI769560
aI765633
aI768456
aI689105
aI772938
aI768902
aI768792
aI768463
aI769252
asg626
(lp1264
I329975
aI325995
aI341676
aI370126
aI369945
aI327694
aI350080
aI326250
aI324674
aI322199
asg628
(lp1265
I334039
aI345846
aI330557
aI326617
aI322267
aI341903
aI314274
aI357058
aI338053
aI341133
asg630
(lp1266
I494515
aI474727
aI494783
aI170411
aI497235
aI490144
aI498276
aI486970
aI530206
aI414945
asg632
(lp1267
I842981
aI1122296
aI902586
aI908491
aI965210
aI912377
aI1113773
aI893942
aI1110056
aI905637
asg634
(lp1268
I726972
aI691268
aI692015
aI663594
aI698131
aI694948
aI667254
aI847426
aI770211
aI691847
asg636
(lp1269
I1134806
aI1134106
aI1154793
aI1161619
aI1163440
aI1154745
aI1154928
aI1142023
aI1130934
aI1159287
asg638
(lp1270
I1426122
aI1398669
aI1449512
aI1418098
aI1418816
aI1397948
aI1402276
aI1382676
aI1405893
aI1429585
asg640
(lp1271
I1069721
aI1066964
aI1056328
aI1059887
aI1069971
aI1066432
aI1066748
aI1066748
aI1350209
aI1383737
asg642
(lp1272
I469603
aI375148
aI466143
aI407144
aI445845
aI461590
aI466185
aI391496
aI434171
aI466152
asg644
(lp1273
I522406
aI481372
aI85570
aI50024
aI373544
aI514469
aI398419
aI475227
aI410592
aI479255
asg646
(lp1274
I105021
aI101479
aI101298
aI101600
aI101606
aI101376
aI105059
aI105161
aI101594
aI101306
asg648
(lp1275
I205281
aI209453
aI204344
aI205788
aI202267
aI209002
aI209249
aI201887
aI205809
aI202429
asg650
(lp1276
I728150
aI728107
aI728502
aI733498
aI731231
aI724296
aI727993
aI727588
aI708394
aI731223
asg652
(lp1277
I379027
aI357895
aI273976
aI379029
aI382515
aI378397
aI378422
aI378906
aI374291
aI378482
asg654
(lp1278
I250628
aI250967
aI254701
aI250418
aI249781
aI246609
aI249845
aI250808
aI251455
aI250337
asg656
(lp1279
I1227782
aI1211898
aI1230686
aI1223948
aI1216592
aI1224216
aI1230688
aI1223452
aI1214077
aI1230691
asg658
(lp1280
I128689
aI128609
aI128940
aI128923
aI125477
aI129156
aI129121
aI125756
aI125546
aI131855
asg660
(lp1281
I882545
aI713355
aI881920
aI886018
aI889718
aI782117
aI858608
aI896757
aI883331
aI588506
asg662
(lp1282
I49922
aI50412
aI50283
aI54283
aI58006
aI54324
aI54300
aI54317
aI54381
aI53935
asg664
(lp1283
I1364632
aI1291179
aI1467667
aI1452565
aI1340899
aI1526622
aI1284985
aI1269201
aI1431375
aI1800711
asg666
(lp1284
I186475
aI190047
aI162307
aI177888
aI186204
aI186464
aI201772
aI189123
aI186151
aI178473
asg668
(lp1285
I73859
aI77378
aI77206
aI81433
aI73330
aI77389
aI77520
aI74018
aI93934
aI73472
asg670
(lp1286
I222002
aI281744
aI266099
aI266509
aI265989
aI263096
aI266537
aI274466
aI262740
aI266351
asg672
(lp1287
I248143
aI251980
aI259243
aI275082
aI251803
aI252132
aI251214
aI255128
aI251967
aI259061
asg674
(lp1288
I228829
aI229720
aI228090
aI228395
aI236292
aI233048
aI230008
aI224680
aI221089
aI233025
asg676
(lp1289
I302236
aI287416
aI291447
aI286444
aI286180
aI291416
aI416302
aI291258
aI291370
aI291418
asg678
(lp1290
I77983
aI85516
aI81916
aI81784
aI81858
aI81623
aI85491
aI81779
aI81714
aI81500
asg680
(lp1291
I776852
aI780482
aI841954
aI772872
aI771573
aI795477
aI788803
aI720497
aI814991
aI768453
asg682
(lp1292
I615501
aI615468
aI599901
aI611789
aI619623
aI50531
aI546981
aI622421
aI611141
aI607933
asg684
(lp1293
I212283
aI213253
aI206469
aI210190
aI206375
aI209687
aI209538
aI206186
aI209761
aI228321
asg686
(lp1294
I23067
aI26562
aI26564
aI26536
aI26576
aI26752
aI26604
aI26578
aI26597
aI26568
asg688
(lp1295
I346214
aI350489
aI347157
aI350822
aI347175
aI350580
aI345881
aI346145
aI345783
aI346776
asg690
(lp1296
I531462
aI572141
aI562474
aI569838
aI558194
aI558147
aI631762
aI566040
aI561854
aI515163
asg692
(lp1297
I700865
aI482908
aI700365
aI695651
aI704024
aI695578
aI724188
aI696786
aI696692
aI700216
asg694
(lp1298
I26660
aI26734
aI26714
aI23050
aI26680
aI22888
aI26638
aI26616
aI22614
aI26751
asg696
(lp1299
I466423
aI553055
aI434225
aI558020
aI548910
aI466604
aI486109
aI541964
aI466650
aI470220
asg698
(lp1300
I437215
aI573723
aI578089
aI578127
aI574478
aI574316
aI562533
aI577738
aI577926
aI552969
asg700
(lp1301
I414167
aI405978
aI398632
aI350515
aI394373
aI397605
aI385220
aI314675
aI390518
aI397706
asg702
(lp1302
I1015495
aI1014719
aI934888
aI1007878
aI940519
aI1004305
aI1004021
aI1014518
aI1007913
aI1007348
asg704
(lp1303
I290088
aI242372
aI290678
aI289635
aI282270
aI285551
aI283201
aI289471
aI283078
aI329760
asg706
(lp1304
I642252
aI300365
aI599112
aI562314
aI605820
aI599045
aI599507
aI580087
aI587856
aI588951
asg708
(lp1305
I1732060
aI1758809
aI1688958
aI1746498
aI1723817
aI1726677
aI1801547
aI1731499
aI1711295
aI1707816
asg710
(lp1306
I933028
aI952527
aI1034846
aI1043294
aI980552
aI1254227
aI941169
aI1125799
aI1037239
aI1052804
asg712
(lp1307
I3780534
aI3767116
aI3782758
aI3755744
aI3761611
aI3777607
aI3715403
aI3777273
aI3772043
aI3772512
asg714
(lp1308
I1595882
aI1366437
aI1504053
aI1680107
aI1210557
aI1212185
aI1665337
aI1367428
aI1482775
aI1679654
asg716
(lp1309
I938681
aI1046713
aI914353
aI1050933
aI941792
aI951543
aI985506
aI859110
aI963402
aI982939
asg718
(lp1310
I955566
aI955064
aI1193918
aI1450573
aI1471040
aI479331
aI1302534
aI985288
aI1292166
aI1215984
asg720
(lp1311
I26517
aI22795
aI26566
aI26586
aI22982
aI26566
aI26567
aI22946
aI26574
aI26576
asg722
(lp1312
I26959
aI26931
aI26900
aI26666
aI26160
aI26712
aI26884
aI30493
aI26910
aI26724
asg724
(lp1313
I1343765
aI1316292
aI1447434
aI1276925
aI1303570
aI1351983
aI1354851
aI1455539
aI1391349
aI1323835
asg726
(lp1314
I172356
aI214825
aI211401
aI208247
aI211877
aI207921
aI211730
aI207503
aI208456
aI208319
asg728
(lp1315
I747957
aI636164
aI744961
aI563490
aI659427
aI604377
aI612565
aI474760
aI631768
aI23025
asg730
(lp1316
I800286
aI1030164
aI1019523
aI919269
aI1018278
aI996728
aI951978
aI874170
aI844795
aI804750
asg732
(lp1317
I949522
aI854311
aI938536
aI930956
aI906187
aI729419
aI960116
aI26666
aI783124
aI882930
asg734
(lp1318
I189694
aI408587
aI279595
aI424569
aI432258
aI336718
aI405084
aI411688
aI433165
aI444435
asg736
(lp1319
I297223
aI244828
aI22909
aI289141
aI81502
aI22979
aI233778
aI22918
aI257800
aI279199
asg738
(lp1320
I562234
aI582205
aI662935
aI492606
aI792869
aI561898
aI771162
aI831705
aI432706
aI259385
asg740
(lp1321
I150545
aI154438
aI145097
aI150554
aI149787
aI150193
aI149264
aI150572
aI149800
aI150392
asg742
(lp1322
I566827
aI566916
aI575308
aI570397
aI573743
aI539455
aI570721
aI563091
aI567187
aI570957
asg744
(lp1323
I964812
aI1176164
aI1222112
aI1160925
aI1251686
aI1065676
aI1016249
aI1060568
aI1074239
aI1281971
asg746
(lp1324
I1128556
aI1029715
aI783822
aI1136625
aI22517
aI1051684
aI1099253
aI1013076
aI1029412
aI613163
asg748
(lp1325
I679214
aI654615
aI647463
aI636351
aI648081
aI647539
aI644156
aI647958
aI644172
aI647522
asg750
(lp1326
I226707
aI230657
aI218717
aI230251
aI226057
aI226522
aI226782
aI230188
aI226813
aI226853
asg752
(lp1327
I249576
aI236555
aI226720
aI253157
aI233265
aI245615
aI242076
aI225535
aI233136
aI233523
asg754
(lp1328
I1310298
aI1300744
aI1299633
aI1315410
aI1312575
aI1300255
aI1382828
aI1300719
aI1257927
aI1327463
asg756
(lp1329
I162748
aI162805
aI158807
aI162428
aI162849
aI161394
aI162427
aI162361
aI162736
aI162498
asg758
(lp1330
I117732
aI42446
aI117639
aI114084
aI114262
aI110422
aI110129
aI114032
aI117744
aI109834
asg760
(lp1331
I22880
aI26484
aI22231
aI22749
aI23001
aI22633
aI26557
aI22348
aI26570
aI26600
asg762
(lp1332
I966495
aI974435
aI973474
aI973770
aI971126
aI970470
aI947657
aI970927
aI940291
aI922393
asg764
(lp1333
I418196
aI418770
aI421849
aI418609
aI22844
aI413787
aI425467
aI422584
aI414530
aI417863
asg766
(lp1334
I142570
aI142279
aI138886
aI142405
aI138249
aI161810
aI138451
aI142695
aI142567
aI152372
asg768
(lp1335
I582616
aI1497567
aI1524410
aI1511177
aI1707423
aI1123166
aI599416
aI727645
aI1485321
aI557794
asg770
(lp1336
I456709
aI467553
aI456836
aI465170
aI465469
aI460869
aI469174
aI411653
aI458246
aI457931
asg772
(lp1337
I827864
aI922193
aI802834
aI920534
aI954718
aI854166
aI775112
aI536883
aI817471
aI899726
asg774
(lp1338
I222188
aI221980
aI218621
aI222446
aI222115
aI222080
aI210794
aI222050
aI222428
aI218288
asg776
(lp1339
I395935
aI395354
aI399780
aI395187
aI403848
aI379926
aI398783
aI395366
aI395842
aI417322
asg778
(lp1340
I22769
aI1138585
aI1122052
aI652852
aI696798
aI1071223
aI1206097
aI857740
aI1147163
aI1158626
asg780
(lp1341
I1067276
aI1068252
aI1051902
aI1048717
aI1051230
aI1043987
aI1051579
aI1018467
aI1075219
aI1084970
asg782
(lp1342
I26519
aI522784
aI657913
aI956455
aI558302
aI305223
aI891576
aI951964
aI633670
aI152811
asg784
(lp1343
I423371
aI423600
aI420045
aI419374
aI423737
aI427304
aI423388
aI415554
aI423801
aI423699
asg786
(lp1344
I1371702
aI1440699
aI1200058
aI1293538
aI1496818
aI1192378
aI1458908
aI1200455
aI1297803
aI1289154
asg788
(lp1345
I238351
aI238650
aI242040
aI238555
aI242225
aI238292
aI242472
aI238526
aI238572
aI245024
asg790
(lp1346
I1390402
aI1373976
aI1411689
aI1317416
aI1408914
aI1385348
aI1382104
aI1385033
aI1178548
aI1397934
asg792
(lp1347
I22915
aI26427
aI26541
aI26549
aI26531
aI26487
aI26467
aI22894
aI22938
aI26549
asg794
(lp1348
I310455
aI331051
aI331019
aI303958
aI318518
aI315359
aI336166
aI311434
aI328120
aI259168
asg796
(lp1349
I74357
aI66584
aI194359
aI198008
aI193669
aI77791
aI194324
aI194250
aI198288
aI69902
asg798
(lp1350
I101989
aI118353
aI121945
aI125927
aI117541
aI121918
aI121922
aI121922
aI121695
aI122099
asg800
(lp1351
I40039
aI893205
aI919515
aI865754
aI897768
aI939399
aI915438
aI444116
aI901586
aI482250
asg802
(lp1352
I256717
aI210058
aI261917
aI254185
aI254359
aI254444
aI258175
aI242219
aI257763
aI258197
asg804
(lp1353
I26428
aI673761
aI487505
aI721758
aI50410
aI827091
aI788294
aI391461
aI823952
aI841268
asg806
(lp1354
I748123
aI786050
aI423641
aI853021
aI926073
aI651296
aI733786
aI802058
aI725781
aI423381
asg808
(lp1355
I38123
aI37454
aI38104
aI41617
aI38140
aI38151
aI38129
aI41633
aI38031
aI38180
asg810
(lp1356
I581974
aI577914
aI534097
aI549819
aI22723
aI578150
aI578728
aI578141
aI581419
aI577003
asg812
(lp1357
I587798
aI618531
aI622755
aI597016
aI604686
aI605322
aI600630
aI614395
aI603873
aI608162
asg814
(lp1358
I630661
aI707517
aI700219
aI374762
aI375027
aI700024
aI482375
aI494747
aI687098
aI655012
asg816
(lp1359
I228548
aI228754
aI228876
aI225191
aI224987
aI228774
aI228696
aI236143
aI232141
aI224989
asg818
(lp1360
I288829
aI284900
aI268805
aI289702
aI285283
aI296440
aI293726
aI289211
aI265766
aI281353
asg820
(lp1361
I947846
aI947114
aI895219
aI962667
aI897042
aI1116268
aI930803
aI1016460
aI947313
aI955192
asg822
(lp1362
I570110
aI613691
aI612736
aI572783
aI624390
aI624121
aI620952
aI621001
aI624630
aI616274
asg824
(lp1363
I568504
aI765664
aI723055
aI730034
aI655104
aI640342
aI715053
aI809540
aI718064
aI676878
asg826
(lp1364
I688314
aI691566
aI685946
aI809156
aI636927
aI671966
aI676896
aI636013
aI656912
aI801319
asg828
(lp1365
I49823
aI49780
aI49797
aI49815
aI45796
aI57857
aI49793
aI49319
aI53555
aI49789
asg830
(lp1366
I385659
aI414201
aI413658
aI433810
aI185371
aI318847
aI406907
aI413241
aI406144
aI409323
asg832
(lp1367
I674271
aI661601
aI666696
aI669711
aI668766
aI674508
aI534375
aI661526
aI651608
aI687275
asg834
(lp1368
I22331
aI26575
aI26294
aI26542
aI22676
aI23049
aI23092
aI22203
aI26526
aI22752
asg836
(lp1369
I26570
aI26610
aI26534
aI26594
aI26553
aI26577
aI26575
aI26575
aI26569
aI26571
asg838
(lp1370
I906011
aI902711
aI901682
aI902286
aI909473
aI889964
aI912683
aI898852
aI901946
aI904821
asg840
(lp1371
I846339
aI954554
aI857879
aI849506
aI834264
aI983421
aI943025
aI955034
aI959026
aI855336
asg842
(lp1372
I234641
aI242814
aI250649
aI235060
aI242590
aI231380
aI231048
aI230691
aI250958
aI235288
asg844
(lp1373
I1189441
aI1142821
aI1192438
aI1139343
aI1199779
aI1165137
aI1204469
aI1186229
aI1147452
aI1151823
asg846
(lp1374
I165850
aI590730
aI594184
aI590614
aI587427
aI598433
aI590307
aI590497
aI590982
aI599482
asg848
(lp1375
I1419965
aI1722443
aI1765208
aI1460148
aI1728039
aI1734903
aI1702577
aI1740497
aI1735603
aI1568999
asg850
(lp1376
I506395
aI450947
aI486506
aI438583
aI410951
aI497966
aI454451
aI485743
aI493927
aI417887
asg852
(lp1377
I1697418
aI1727562
aI1724211
aI1813722
aI1896652
aI2060646
aI1774825
aI2089406
aI1785971
aI1730338
asg854
(lp1378
I989264
aI992928
aI878106
aI999992
aI916997
aI993381
aI999747
aI1006013
aI916901
aI1003288
asg856
(lp1379
I376400
aI375664
aI377320
aI375770
aI361142
aI377167
aI377209
aI288973
aI380313
aI381187
asg858
(lp1380
I683613
aI689728
aI697447
aI689791
aI736290
aI673734
aI693803
aI670034
aI673096
aI627881
asg860
(lp1381
I585474
aI584978
aI588196
aI588485
aI585073
aI585576
aI582106
aI592325
aI592616
aI588114
asg862
(lp1382
I387920
aI379745
aI380033
aI375922
aI375944
aI375741
aI375546
aI382053
aI390984
aI383115
asg864
(lp1383
I206867
aI210338
aI206806
aI206810
aI206815
aI210444
aI206683
aI206682
aI209899
aI206088
asg866
(lp1384
I213112
aI209192
aI212506
aI209523
aI23021
aI208576
aI209427
aI209613
aI212761
aI220413
asg868
(lp1385
I26574
aI26403
aI22327
aI22975
aI22338
aI22821
aI22357
aI22958
aI26164
aI26581
asg870
(lp1386
I193896
aI53755
aI877221
aI868430
aI204279
aI867431
aI778405
aI182070
aI324129
aI849333
asg872
(lp1387
I1557641
aI1233120
aI1187562
aI1289115
aI1619874
aI1648673
aI1506679
aI1507171
aI1566371
aI1148219
asg874
(lp1388
I2517372
aI2779562
aI2517131
aI2401545
aI2419350
aI2373895
aI2580784
aI2734614
aI2600451
aI2854402
asg876
(lp1389
I347554
aI354790
aI358703
aI363192
aI350849
aI351440
aI359642
aI355992
aI342066
aI358537
asg878
(lp1390
I114451
aI114091
aI118052
aI118197
aI117944
aI114280
aI114319
aI113450
aI117986
aI114417
asg880
(lp1391
I1032783
aI948127
aI974015
aI1016199
aI972260
aI964161
aI995689
aI984467
aI952847
aI1028299
asg882
(lp1392
I1036450
aI867455
aI553303
aI1039487
aI500384
aI1099588
aI1311410
aI1152606
aI1259564
aI1316776
asg884
(lp1393
I286338
aI290529
aI286225
aI290082
aI286438
aI286503
aI290276
aI286898
aI290287
aI298363
asg886
(lp1394
I725863
aI782317
aI690267
aI822657
aI781813
aI818570
aI822871
aI796336
aI830426
aI822920
asg888
(lp1395
I193734
aI109527
aI106112
aI116921
aI133484
aI113537
aI185767
aI105237
aI105376
aI106150
asg890
(lp1396
I1095554
aI1153586
aI1163321
aI1322226
aI1168966
aI1168786
aI1153007
aI1185303
aI1162616
aI1152557
asg892
(lp1397
I228048
aI239825
aI242158
aI247505
aI134071
aI249982
aI238719
aI246966
aI255045
aI247372
asg894
(lp1398
I399164
aI340224
aI388015
aI387556
aI384169
aI384240
aI384303
aI391608
aI384059
aI384097
asg896
(lp1399
I74731
aI78381
aI78461
aI78235
aI81701
aI82117
aI78258
aI74902
aI94223
aI78191
asg898
(lp1400
I26563
aI26499
aI21385
aI22856
aI26369
aI22568
aI22978
aI22430
aI22476
aI22561
asg900
(lp1401
I554858
aI549841
aI557669
aI554114
aI554919
aI562032
aI558312
aI555288
aI555429
aI546851
asg902
(lp1402
I23026
aI1119362
aI1559027
aI1283366
aI1572918
aI1073364
aI700964
aI1404009
aI1429346
aI1330110
asg904
(lp1403
I462986
aI459275
aI455839
aI450451
aI466520
aI455724
aI455691
aI382846
aI455684
aI459167
asg906
(lp1404
I22545
aI23038
aI23050
aI22269
aI22930
aI22920
aI18460
aI22945
aI22863
aI22926
asg908
(lp1405
I219000
aI218804
aI218931
aI218814
aI218923
aI218815
aI218543
aI222734
aI218570
aI222504
asg910
(lp1406
I746958
aI747144
aI744010
aI743997
aI740918
aI738720
aI743472
aI726685
aI727478
aI727131
asg912
(lp1407
I122286
aI122381
aI125914
aI122375
aI122506
aI126040
aI121786
aI125932
aI122381
aI122511
asg914
(lp1408
I255422
aI22945
aI251980
aI252089
aI252033
aI262691
aI254903
aI252082
aI250610
aI255767
asg916
(lp1409
I350910
aI357533
aI354104
aI350845
aI342820
aI354229
aI334576
aI354633
aI349867
aI350632
asg918
(lp1410
I1081071
aI934929
aI1045586
aI1084966
aI1061663
aI1061410
aI1057833
aI1057511
aI1068321
aI1062049
asg920
(lp1411
I217653
aI217780
aI217804
aI221646
aI217765
aI217784
aI217667
aI217747
aI217801
aI217779
asg922
(lp1412
I975505
aI938454
aI1107103
aI1082510
aI856356
aI1114022
aI908996
aI1130688
aI1011964
aI1018135
asg924
(lp1413
I155480
aI166242
aI162929
aI151836
aI203042
aI163061
aI234588
aI179706
aI183313
aI179278
asg926
(lp1414
I778493
aI862014
aI869732
aI877830
aI865677
aI858445
aI858473
aI858072
aI861322
aI858338
asg928
(lp1415
I312579
aI320176
aI320608
aI326744
aI316941
aI320055
aI320232
aI317082
aI313985
aI328313
asg930
(lp1416
I1186288
aI1189825
aI1185488
aI1186180
aI1088225
aI1185918
aI1185622
aI1185916
aI1182362
aI1186073
asg932
(lp1417
I528460
aI520358
aI512343
aI528646
aI516780
aI518872
aI520709
aI520330
aI512399
aI455287
asg934
(lp1418
I158292
aI155216
aI158765
aI182467
aI155029
aI158747
aI158932
aI158723
aI158648
aI153913
asg936
(lp1419
I705354
aI684934
aI705017
aI700914
aI667177
aI696672
aI708039
aI700279
aI693416
aI692648
asg938
(lp1420
I624392
aI641389
aI644721
aI636359
aI648602
aI550177
aI527115
aI632037
aI652188
aI540031
asg940
(lp1421
I1576621
aI1600139
aI1585047
aI984863
aI1606867
aI1696226
aI1612229
aI1587954
aI1301993
aI1608687
asg942
(lp1422
I819008
aI862803
aI741807
aI852130
aI811683
aI907884
aI830233
aI831882
aI650646
aI954376
asg944
(lp1423
I188590
aI184545
aI180678
aI184077
aI188489
aI181099
aI180703
aI188208
aI184459
aI180983
asg946
(lp1424
I1282311
aI1278759
aI1292863
aI1282592
aI1272063
aI1274060
aI1272091
aI1271784
aI1275361
aI1262916
asg948
(lp1425
I552397
aI557748
aI549163
aI549581
aI553912
aI561168
aI564021
aI556475
aI550184
aI552271
asg950
(lp1426
I1037209
aI977428
aI1108683
aI1043681
aI1024732
aI1036185
aI1119544
aI1017335
aI997199
aI1012436
ast.